Certificate:
    Data:
        Version: 3 (0x2)
        Serial Number: 2148017708 (0x8008262c)
        Signature Algorithm: sha256WithRSAEncryption
        Issuer: CN=SRK1_sha256_4096_65537_v3_ca
        Validity
            Not Before: Mar 19 07:22:47 2023 GMT
            Not After : Feb 23 07:22:47 2122 GMT
        Subject: CN=CSF1_1_sha256_4096_65537_v3_usr
        Subject Public Key Info:
            Public Key Algorithm: rsaEncryption
                RSA Public-Key: (4096 bit)
                Modulus:
                    00:c3:bf:61:9a:06:72:82:2d:15:e5:c0:42:8c:26:
                    25:f1:e8:d5:bd:0b:93:16:e6:82:af:63:23:b0:72:
                    3f:77:7d:84:94:08:20:78:35:a0:c6:f3:49:3c:5f:
                    b9:74:da:fa:78:ab:ed:4d:e1:21:16:38:05:d4:03:
                    68:61:27:d8:d0:21:cc:80:eb:fc:ad:17:4b:f1:0b:
                    08:07:bc:61:66:ad:3a:a9:8d:5b:77:71:16:3e:96:
                    51:69:3b:3b:ac:fd:98:e6:62:7c:b2:b3:8d:06:f4:
                    8a:ba:84:81:c8:69:17:a6:d7:75:c6:af:49:ae:4a:
                    11:6b:bf:85:df:47:8a:ef:0f:05:64:14:f0:8e:bb:
                    78:f7:d4:50:8a:80:68:68:94:1b:64:b0:7c:1e:23:
                    48:02:a2:86:a9:89:18:74:b5:bf:ad:42:fd:85:94:
                    66:a5:69:11:11:54:2e:d1:c5:c4:5b:6d:e7:da:c9:
                    47:eb:74:06:fa:88:5e:01:64:0e:27:4d:b9:b2:6c:
                    59:a1:eb:d8:79:e5:fc:51:d0:c1:cb:eb:cb:db:02:
                    5e:ba:b0:73:4b:c6:c4:c9:c2:37:e9:5e:9e:4c:0a:
                    33:62:70:98:d5:14:71:b7:87:90:fa:59:f1:ff:13:
                    d0:ce:ae:39:c0:09:ed:9f:f1:48:bd:9f:79:14:c1:
                    52:95:44:ab:3d:95:bb:f2:8e:52:10:50:15:ef:48:
                    3a:d4:72:be:61:c2:57:f4:da:53:9f:3b:90:b0:11:
                    04:27:7d:38:05:e0:47:41:d7:a8:a8:8d:8b:16:1a:
                    7a:1d:72:b4:67:a3:cc:7c:6d:90:a3:10:e3:1b:2d:
                    ac:c8:d0:8d:3c:f4:58:df:4b:4b:5b:15:8b:25:25:
                    dd:57:5d:ef:ca:b8:5d:c5:f6:a5:9c:f2:6f:00:52:
                    fa:45:da:37:2b:d9:68:df:95:0c:02:bb:01:2b:04:
                    c2:19:2b:3f:be:13:e7:81:74:eb:2d:8e:36:61:fd:
                    99:15:60:d4:f4:51:51:e9:f8:60:1b:52:fe:93:66:
                    9e:7e:bc:bc:d3:2d:e6:4f:6f:33:c1:69:98:e7:38:
                    a0:7f:6e:9a:de:0a:a1:aa:c2:28:0c:c7:1e:ff:b3:
                    2f:f7:bc:eb:b4:29:00:06:27:aa:b4:84:82:6f:34:
                    70:56:8a:e4:53:61:61:98:8d:ce:dc:90:c2:b9:a9:
                    a2:89:c6:af:34:f1:e5:05:91:3f:fe:49:cf:8a:b6:
                    8f:26:15:b4:a5:90:f0:3c:bb:8b:d6:3f:6c:f0:ba:
                    85:d3:ad:eb:11:4f:63:f3:16:49:09:6e:73:ff:51:
                    9d:1c:8a:d8:a5:c6:b9:31:fd:80:ce:95:63:be:2a:
                    13:8a:8b
                Exponent: 65537 (0x10001)
        X509v3 extensions:
            X509v3 Basic Constraints: 
                CA:FALSE
            Netscape Comment: 
                OpenSSL Generated Certificate
            X509v3 Subject Key Identifier: 
                65:AE:64:A7:7C:C7:EF:A7:42:22:08:35:26:F9:0A:F7:1A:71:E0:B0
            X509v3 Authority Key Identifier: 
                keyid:BA:58:4D:C2:DA:51:33:79:0C:E4:5A:57:1D:FD:1D:B1:7C:49:C0:F6

    Signature Algorithm: sha256WithRSAEncryption
         25:3f:10:32:04:f9:b0:54:5d:5e:04:34:c4:00:1c:a4:4f:4f:
         f6:40:0d:5f:e5:b6:90:c1:e0:96:d1:2e:f9:c1:d1:43:44:15:
         90:c2:c5:22:c6:2b:07:4d:18:08:df:af:43:e5:36:46:84:01:
         10:5f:8a:da:1b:5c:b9:7d:08:94:cc:bb:bc:8a:02:57:ab:a0:
         da:6e:1e:77:ba:cf:80:71:7d:50:2a:33:3a:ec:f5:b4:3e:46:
         d9:17:44:b5:1b:93:ab:41:3a:7d:a9:98:f8:79:63:66:de:ef:
         0c:b5:d1:31:9a:47:a8:b4:d9:eb:cd:14:ce:d8:bc:db:7e:48:
         0b:a5:a7:48:af:33:ff:d4:ac:30:1b:0d:c7:38:e6:51:9d:13:
         93:4e:50:b1:06:67:1f:fa:a3:d9:50:8a:cc:d8:96:7e:49:13:
         96:ff:fa:c1:19:b7:ea:98:2b:5a:83:d0:38:1e:45:30:4a:22:
         90:9d:c9:11:b7:5b:8f:0e:b8:4e:e5:31:31:99:24:45:df:b7:
         08:59:fd:e1:47:fd:0e:6d:fd:24:12:52:80:a3:0c:94:ce:77:
         b6:37:43:87:5c:fe:e2:8e:3f:86:8c:f0:75:e7:40:2f:12:0e:
         68:b7:4a:e2:8c:6e:c7:ad:68:93:26:aa:84:03:54:fa:29:2a:
         62:6d:1c:16:e7:3c:99:18:10:0d:bf:81:0a:78:8a:c9:e3:2c:
         9e:ea:55:af:d9:6a:ac:e8:7f:47:12:12:7c:60:15:b7:9f:8d:
         b8:7d:cf:a0:b9:31:da:6d:c8:58:af:f6:a3:69:58:67:ba:4c:
         be:c4:c7:8c:51:18:39:7a:8f:cc:a2:11:7d:d4:94:06:3a:f0:
         20:d8:72:53:7d:a5:2c:28:f5:45:27:d0:7d:b5:69:ef:48:fc:
         9a:4f:99:92:50:ba:f2:3a:e9:ba:ac:55:5e:be:16:27:94:ac:
         d3:1f:98:d6:44:e0:a2:5a:15:85:95:0b:ce:b5:38:be:09:aa:
         90:c6:1c:76:9e:fb:55:de:8a:ea:50:58:bb:af:2b:a4:9e:8d:
         95:35:31:87:b3:62:10:93:05:db:34:8f:b4:1e:53:d8:5f:44:
         54:c8:c2:95:a9:53:bd:3e:27:91:33:69:a2:34:f7:c2:0c:5c:
         eb:6a:f5:db:47:ea:d5:26:bc:50:21:d0:20:3a:f1:ef:58:19:
         c0:3a:8d:fd:fb:fa:11:64:d9:3b:8e:ce:04:20:5c:53:b7:2f:
         5c:58:cc:a6:e1:05:ad:92:89:f3:4d:ca:4f:19:46:af:4f:ac:
         66:74:00:6c:08:e5:f9:d4:9b:31:29:65:3e:42:54:38:bd:92:
         f1:bf:05:7a:b8:7c:08:d0
-----BEGIN CERTIFICATE-----
MIIFTTCCAzWgAwIBAgIFAIAIJiwwDQYJKoZIhvcNAQELBQAwJzElMCMGA1UEAwwc
U1JLMV9zaGEyNTZfNDA5Nl82NTUzN192M19jYTAgFw0yMzAzMTkwNzIyNDdaGA8y
MTIyMDIyMzA3MjI0N1owKjEoMCYGA1UEAwwfQ1NGMV8xX3NoYTI1Nl80MDk2XzY1
NTM3X3YzX3VzcjCCAiIwDQYJKoZIhvcNAQEBBQADggIPADCCAgoCggIBAMO/YZoG
coItFeXAQowmJfHo1b0Lkxbmgq9jI7ByP3d9hJQIIHg1oMbzSTxfuXTa+nir7U3h
IRY4BdQDaGEn2NAhzIDr/K0XS/ELCAe8YWatOqmNW3dxFj6WUWk7O6z9mOZifLKz
jQb0irqEgchpF6bXdcavSa5KEWu/hd9Hiu8PBWQU8I67ePfUUIqAaGiUG2SwfB4j
SAKihqmJGHS1v61C/YWUZqVpERFULtHFxFtt59rJR+t0BvqIXgFkDidNubJsWaHr
2Hnl/FHQwcvry9sCXrqwc0vGxMnCN+lenkwKM2JwmNUUcbeHkPpZ8f8T0M6uOcAJ
7Z/xSL2feRTBUpVEqz2Vu/KOUhBQFe9IOtRyvmHCV/TaU587kLARBCd9OAXgR0HX
qKiNixYaeh1ytGejzHxtkKMQ4xstrMjQjTz0WN9LS1sViyUl3Vdd78q4XcX2pZzy
bwBS+kXaNyvZaN+VDAK7ASsEwhkrP74T54F06y2ONmH9mRVg1PRRUen4YBtS/pNm
nn68vNMt5k9vM8FpmOc4oH9umt4KoarCKAzHHv+zL/e867QpAAYnqrSEgm80cFaK
5FNhYZiNztyQwrmpoonGrzTx5QWRP/5Jz4q2jyYVtKWQ8Dy7i9Y/bPC6hdOt6xFP
Y/MWSQluc/9RnRyK2KXGuTH9gM6VY74qE4qLAgMBAAGjezB5MAkGA1UdEwQCMAAw
LAYJYIZIAYb4QgENBB8WHU9wZW5TU0wgR2VuZXJhdGVkIENlcnRpZmljYXRlMB0G
A1UdDgQWBBRlrmSnfMfvp0IiCDUm+Qr3GnHgsDAfBgNVHSMEGDAWgBS6WE3C2lEz
eQzkWlcd/R2xfEnA9jANBgkqhkiG9w0BAQsFAAOCAgEAJT8QMgT5sFRdXgQ0xAAc
pE9P9kANX+W2kMHgltEu+cHRQ0QVkMLFIsYrB00YCN+vQ+U2RoQBEF+K2htcuX0I
lMy7vIoCV6ug2m4ed7rPgHF9UCozOuz1tD5G2RdEtRuTq0E6famY+HljZt7vDLXR
MZpHqLTZ680Uzti8235IC6WnSK8z/9SsMBsNxzjmUZ0Tk05QsQZnH/qj2VCKzNiW
fkkTlv/6wRm36pgrWoPQOB5FMEoikJ3JEbdbjw64TuUxMZkkRd+3CFn94Uf9Dm39
JBJSgKMMlM53tjdDh1z+4o4/hozwdedALxIOaLdK4oxux61okyaqhANU+ikqYm0c
Fuc8mRgQDb+BCniKyeMsnupVr9lqrOh/RxISfGAVt5+NuH3PoLkx2m3IWK/2o2lY
Z7pMvsTHjFEYOXqPzKIRfdSUBjrwINhyU32lLCj1RSfQfbVp70j8mk+ZklC68jrp
uqxVXr4WJ5Ss0x+Y1kTgoloVhZULzrU4vgmqkMYcdp77Vd6K6lBYu68rpJ6NlTUx
h7NiEJMF2zSPtB5T2F9EVMjClalTvT4nkTNpojT3wgxc62r120fq1Sa8UCHQIDrx
71gZwDqN/fv6EWTZO47OBCBcU7cvXFjMpuEFrZKJ803KTxlGr0+sZnQAbAjl+dSb
MSllPkJUOL2S8b8Ferh8CNA=
-----END CERTIFICATE-----
