Certificate:
    Data:
        Version: 3 (0x2)
        Serial Number: 2148017717 (0x80082635)
        Signature Algorithm: sha256WithRSAEncryption
        Issuer: CN=SRK4_sha256_4096_65537_v3_ca
        Validity
            Not Before: Mar 19 07:22:50 2023 GMT
            Not After : Feb 23 07:22:50 2122 GMT
        Subject: CN=CSF4_1_sha256_4096_65537_v3_usr
        Subject Public Key Info:
            Public Key Algorithm: rsaEncryption
                RSA Public-Key: (4096 bit)
                Modulus:
                    00:a8:8c:07:7f:64:9e:7b:b4:db:ad:df:39:69:48:
                    16:5e:2c:86:5a:5f:3b:4d:c1:64:f0:52:70:db:42:
                    f5:26:b0:65:76:5f:1b:9b:6c:51:13:6c:3e:b8:4d:
                    e3:50:8e:d7:42:fb:24:4c:13:a3:75:7b:07:b1:d8:
                    af:19:e6:d8:af:30:9d:4b:35:52:44:70:02:fb:94:
                    5b:cf:60:cd:28:2b:62:81:8b:b6:5c:ab:f1:df:5c:
                    fd:21:a9:e8:81:3c:cc:63:58:f0:cd:b0:da:d7:f3:
                    dd:36:2d:ef:c2:6f:e3:ff:8f:a1:74:d6:5f:53:71:
                    b4:31:a0:e5:89:ed:9f:8e:2c:f2:11:42:04:3f:88:
                    cd:db:a3:f2:a6:c7:92:81:04:18:8a:73:cf:d1:69:
                    f7:a1:d2:d9:0e:a7:48:f5:89:e9:4f:e2:8f:f4:5d:
                    4d:7d:8c:1b:17:3f:d8:b3:4c:00:43:70:ef:79:9b:
                    34:c2:45:6d:10:d0:f2:29:be:85:95:73:4a:26:e4:
                    40:f8:a0:ba:c3:53:ad:24:d5:e8:25:9f:54:2b:00:
                    67:76:11:ab:b3:3c:eb:7e:fd:01:35:43:f8:db:35:
                    88:fc:c0:4e:51:9d:29:ed:ec:f3:f1:8f:e5:e4:f1:
                    8b:01:f1:c4:60:ab:bb:c3:a3:c8:27:f2:c2:1e:2e:
                    7e:92:d5:07:a2:5f:67:72:32:f8:c3:2c:0f:96:08:
                    0a:33:52:dd:ac:0e:fb:45:55:1c:af:ae:1c:dd:c9:
                    09:08:90:27:87:c9:28:b0:21:32:03:83:32:9c:01:
                    e2:52:33:46:d0:97:5b:a7:ac:f0:b1:26:1a:32:77:
                    52:af:7d:0c:9a:f2:2e:3b:e5:2b:57:c0:3b:33:1a:
                    31:96:18:d0:10:83:95:b1:ad:e6:09:c9:8d:a8:cc:
                    35:d2:d5:84:4f:1f:59:65:3d:96:30:23:1e:0c:86:
                    dc:f2:91:78:74:6f:d0:49:69:58:4a:c4:a7:e0:11:
                    fa:c2:47:22:11:8f:e7:73:64:ce:07:61:c3:f1:8c:
                    b8:c9:20:ca:8c:86:46:b3:7d:a2:db:03:a4:bf:36:
                    56:eb:04:07:7f:a4:4e:08:c2:9d:5e:7e:77:0b:2b:
                    92:54:9c:7b:bd:ac:76:02:67:4c:e2:76:a6:ea:56:
                    fb:1c:1c:d0:66:b2:5f:4d:09:97:09:dc:98:36:48:
                    18:0c:30:1b:38:8e:15:a8:24:31:f9:88:a1:71:85:
                    1e:97:3c:cc:41:31:a9:d5:2b:07:eb:18:12:9e:cc:
                    24:c7:35:c8:9e:4b:2e:1b:4f:9c:0f:42:fe:ad:db:
                    3c:d7:f7:fe:c6:c5:54:56:7a:d7:e6:f2:9a:56:54:
                    e6:a1:df
                Exponent: 65537 (0x10001)
        X509v3 extensions:
            X509v3 Basic Constraints: 
                CA:FALSE
            Netscape Comment: 
                OpenSSL Generated Certificate
            X509v3 Subject Key Identifier: 
                25:3F:4B:7B:1E:B5:D3:46:1A:E7:65:19:E2:17:14:0A:E6:6A:54:B8
            X509v3 Authority Key Identifier: 
                keyid:66:B2:66:7D:17:AC:4D:D8:25:4E:4A:E9:CF:70:55:DE:45:21:D8:40

    Signature Algorithm: sha256WithRSAEncryption
         63:d0:8b:c0:1d:be:0f:b8:be:77:e6:f4:d3:2d:61:5f:72:f7:
         f2:41:39:64:c8:4b:97:0d:e3:a3:7a:6e:d0:cb:b1:df:4e:cb:
         5e:74:6c:ab:17:69:ec:f6:9b:90:37:8f:c7:a6:1d:bb:36:e0:
         a2:a0:af:2b:3c:6d:9d:e9:ca:03:12:4d:5e:44:a1:50:0d:9c:
         71:4a:6a:c3:c4:b4:0b:44:b5:38:03:5b:d6:c8:eb:5b:18:42:
         56:d7:ca:71:10:d5:f7:51:96:e1:45:f4:b4:99:7f:62:ed:ec:
         2a:0c:36:57:4b:47:36:4a:39:6b:85:4d:a0:9f:bf:6b:73:68:
         39:5e:61:03:63:a0:cc:54:85:09:85:49:3f:62:53:3e:ff:61:
         53:0c:e6:06:2c:2c:bf:16:b8:04:79:f3:31:6e:42:9c:3b:05:
         da:b0:d9:9e:9b:fb:19:85:cd:fc:08:7a:1f:8e:af:09:e5:98:
         cf:5e:82:0b:13:26:c1:a6:d8:88:28:a5:6f:d7:30:21:bb:f2:
         c8:64:b5:cc:67:9f:c6:04:8c:5c:d8:4d:54:f4:46:e2:42:82:
         a5:cc:c5:64:ef:aa:09:ed:9d:e4:d4:f0:d1:8d:20:f7:08:9b:
         f4:54:a5:a4:2e:f1:03:91:47:f1:1b:89:b9:f7:b1:8e:17:6c:
         7d:a4:3c:7f:fc:bb:bb:20:5e:4d:a1:8b:c8:75:b2:52:05:eb:
         c3:e3:05:cf:0f:14:c3:96:b2:d4:f1:f8:f8:4f:67:25:30:e6:
         cc:65:d2:04:3e:96:31:97:e6:1f:bc:c5:58:29:0c:d8:ab:5a:
         dd:9c:a1:d8:56:ad:b2:eb:bd:03:66:34:2c:e4:ec:40:c6:0e:
         c3:b6:91:ab:b6:ae:83:d9:0d:74:eb:93:aa:e5:33:36:85:c7:
         92:66:04:d3:ee:57:f6:1c:ee:69:8f:77:c5:79:6b:4e:90:de:
         c1:3c:0e:7c:2b:eb:9b:f3:63:12:ae:21:20:92:84:bd:b8:18:
         88:16:5d:51:06:bf:83:f6:54:c8:35:9d:f8:84:b1:ef:0d:8e:
         8f:c2:4f:ad:3d:77:80:65:71:3e:3b:68:fb:89:b6:d3:d6:a8:
         d8:7d:16:34:85:08:63:3d:d8:fb:6e:47:96:e5:69:18:8e:2a:
         28:41:23:c5:8e:b0:61:43:91:ef:50:bb:de:e8:40:54:72:b7:
         38:fb:8d:c3:55:56:ee:f7:9e:b0:74:af:12:ad:10:f6:1f:d2:
         9b:32:3d:7d:2f:28:96:b3:69:cc:ea:c1:65:8f:20:4b:4e:5b:
         23:c2:21:46:2d:06:36:c3:59:9f:d2:03:14:cf:44:ed:c6:9f:
         d3:0b:69:ea:92:85:bf:00
-----BEGIN CERTIFICATE-----
MIIFTTCCAzWgAwIBAgIFAIAIJjUwDQYJKoZIhvcNAQELBQAwJzElMCMGA1UEAwwc
U1JLNF9zaGEyNTZfNDA5Nl82NTUzN192M19jYTAgFw0yMzAzMTkwNzIyNTBaGA8y
MTIyMDIyMzA3MjI1MFowKjEoMCYGA1UEAwwfQ1NGNF8xX3NoYTI1Nl80MDk2XzY1
NTM3X3YzX3VzcjCCAiIwDQYJKoZIhvcNAQEBBQADggIPADCCAgoCggIBAKiMB39k
nnu0263fOWlIFl4shlpfO03BZPBScNtC9SawZXZfG5tsURNsPrhN41CO10L7JEwT
o3V7B7HYrxnm2K8wnUs1UkRwAvuUW89gzSgrYoGLtlyr8d9c/SGp6IE8zGNY8M2w
2tfz3TYt78Jv4/+PoXTWX1NxtDGg5Yntn44s8hFCBD+Izduj8qbHkoEEGIpzz9Fp
96HS2Q6nSPWJ6U/ij/RdTX2MGxc/2LNMAENw73mbNMJFbRDQ8im+hZVzSibkQPig
usNTrSTV6CWfVCsAZ3YRq7M86379ATVD+Ns1iPzATlGdKe3s8/GP5eTxiwHxxGCr
u8OjyCfywh4ufpLVB6JfZ3Iy+MMsD5YICjNS3awO+0VVHK+uHN3JCQiQJ4fJKLAh
MgODMpwB4lIzRtCXW6es8LEmGjJ3Uq99DJryLjvlK1fAOzMaMZYY0BCDlbGt5gnJ
jajMNdLVhE8fWWU9ljAjHgyG3PKReHRv0ElpWErEp+AR+sJHIhGP53Nkzgdhw/GM
uMkgyoyGRrN9otsDpL82VusEB3+kTgjCnV5+dwsrklSce72sdgJnTOJ2pupW+xwc
0GayX00JlwncmDZIGAwwGziOFagkMfmIoXGFHpc8zEExqdUrB+sYEp7MJMc1yJ5L
LhtPnA9C/q3bPNf3/sbFVFZ61+bymlZU5qHfAgMBAAGjezB5MAkGA1UdEwQCMAAw
LAYJYIZIAYb4QgENBB8WHU9wZW5TU0wgR2VuZXJhdGVkIENlcnRpZmljYXRlMB0G
A1UdDgQWBBQlP0t7HrXTRhrnZRniFxQK5mpUuDAfBgNVHSMEGDAWgBRmsmZ9F6xN
2CVOSunPcFXeRSHYQDANBgkqhkiG9w0BAQsFAAOCAgEAY9CLwB2+D7i+d+b00y1h
X3L38kE5ZMhLlw3jo3pu0Mux307LXnRsqxdp7PabkDePx6YduzbgoqCvKzxtnenK
AxJNXkShUA2ccUpqw8S0C0S1OANb1sjrWxhCVtfKcRDV91GW4UX0tJl/Yu3sKgw2
V0tHNko5a4VNoJ+/a3NoOV5hA2OgzFSFCYVJP2JTPv9hUwzmBiwsvxa4BHnzMW5C
nDsF2rDZnpv7GYXN/Ah6H46vCeWYz16CCxMmwabYiCilb9cwIbvyyGS1zGefxgSM
XNhNVPRG4kKCpczFZO+qCe2d5NTw0Y0g9wib9FSlpC7xA5FH8RuJufexjhdsfaQ8
f/y7uyBeTaGLyHWyUgXrw+MFzw8Uw5ay1PH4+E9nJTDmzGXSBD6WMZfmH7zFWCkM
2Kta3Zyh2Fatsuu9A2Y0LOTsQMYOw7aRq7aug9kNdOuTquUzNoXHkmYE0+5X9hzu
aY93xXlrTpDewTwOfCvrm/NjEq4hIJKEvbgYiBZdUQa/g/ZUyDWd+ISx7w2Oj8JP
rT13gGVxPjto+4m209ao2H0WNIUIYz3Y+25HluVpGI4qKEEjxY6wYUOR71C73uhA
VHK3OPuNw1VW7veesHSvEq0Q9h/SmzI9fS8olrNpzOrBZY8gS05bI8IhRi0GNsNZ
n9IDFM9E7caf0wtp6pKFvwA=
-----END CERTIFICATE-----
