Certificate:
    Data:
        Version: 3 (0x2)
        Serial Number: 2148017712 (0x80082630)
        Signature Algorithm: sha256WithRSAEncryption
        Issuer: CN=SRK2_sha256_4096_65537_v3_ca
        Validity
            Not Before: Mar 19 07:22:49 2023 GMT
            Not After : Feb 23 07:22:49 2122 GMT
        Subject: CN=IMG2_1_sha256_4096_65537_v3_usr
        Subject Public Key Info:
            Public Key Algorithm: rsaEncryption
                RSA Public-Key: (4096 bit)
                Modulus:
                    00:c0:e4:4b:6b:08:15:37:2a:7d:4b:c1:00:70:1f:
                    9e:db:6e:84:74:a0:8b:2a:8d:24:d7:a6:47:15:92:
                    68:c7:78:17:22:28:1e:0a:cd:2a:35:3b:06:25:7a:
                    1e:fb:f7:4c:3e:ba:b1:77:c8:51:39:61:e2:3e:9c:
                    f3:1f:bf:9b:26:fe:fb:64:2c:90:79:3b:e6:b7:52:
                    ac:58:0e:d2:84:24:b7:ff:94:81:46:a8:f1:fc:4b:
                    df:3d:94:18:1c:81:cd:53:57:c7:52:a4:fa:ec:14:
                    8c:a8:92:6a:34:de:08:c3:bf:c2:08:31:ff:59:70:
                    fc:6a:ae:b9:21:24:59:b1:38:56:bd:2b:91:2c:b0:
                    de:55:83:57:10:2a:e8:29:1e:31:6d:30:61:0f:31:
                    d7:d1:68:d1:bc:b1:98:ea:ac:b8:3d:9d:4b:0e:50:
                    94:c7:17:70:ee:6e:ec:fe:87:c7:22:d5:8e:d5:b1:
                    bd:f9:f5:df:93:57:c3:21:08:2f:1c:45:f6:a1:c3:
                    9f:75:ef:d4:46:93:4d:59:cb:93:0b:50:c3:36:13:
                    88:57:8b:6e:77:0e:1d:03:2b:b2:d7:fa:00:80:10:
                    a0:62:ba:70:e2:32:ee:cc:8f:c3:8e:ed:19:cc:7e:
                    11:99:26:fd:c2:b3:00:97:b4:bd:02:f4:22:e3:97:
                    32:f1:c2:ce:7c:99:21:fa:99:46:d9:d0:da:c8:a7:
                    69:a0:22:73:9d:8a:b3:21:f4:a8:41:98:5a:86:58:
                    44:45:d0:e8:39:11:e7:48:18:6f:49:aa:55:a1:84:
                    7b:cf:8b:12:6f:6f:03:09:6c:ee:c2:aa:99:48:fa:
                    79:2b:f4:f1:f8:e6:05:dd:48:53:b4:ed:96:59:b0:
                    8a:70:a5:b9:ba:77:2b:bb:53:fa:a2:43:23:73:c7:
                    3d:be:6a:7e:c2:53:d6:8f:99:df:66:c0:c4:0a:af:
                    a6:39:31:9f:ea:7e:e7:ae:a5:4a:38:34:dd:53:dd:
                    d9:39:c7:25:6d:6c:b1:31:ed:c7:84:42:de:e5:4f:
                    3a:2e:13:70:1c:fe:29:8b:c7:7d:ee:53:d2:ad:a1:
                    c6:01:f3:61:d5:2b:b6:5f:2b:6c:5d:8d:a8:1d:55:
                    48:8c:c6:5d:21:7f:5a:8f:45:c1:19:91:d7:bf:f5:
                    d9:46:79:14:03:4f:67:20:e3:8d:9e:f9:b3:ad:50:
                    2a:83:ba:07:8a:f5:54:22:de:4f:03:8e:61:65:71:
                    f9:b1:32:17:f8:a7:f4:d1:0d:97:f3:5a:cb:78:7c:
                    4b:52:a8:f5:43:cf:3d:47:61:83:f4:6c:69:a1:52:
                    24:44:fc:9f:4e:08:cb:3c:5d:6a:6a:a1:71:e7:aa:
                    9f:65:19
                Exponent: 65537 (0x10001)
        X509v3 extensions:
            X509v3 Basic Constraints: 
                CA:FALSE
            Netscape Comment: 
                OpenSSL Generated Certificate
            X509v3 Subject Key Identifier: 
                D5:23:C3:B9:5C:1D:4D:8C:15:12:AB:C0:62:5B:97:BF:5E:D3:E1:12
            X509v3 Authority Key Identifier: 
                keyid:46:05:28:10:38:E3:9D:66:19:07:46:8D:41:55:28:61:23:49:52:1C

    Signature Algorithm: sha256WithRSAEncryption
         49:e8:3a:77:2d:30:fa:3c:89:85:de:c0:ab:37:9c:86:97:4b:
         bb:fa:30:2d:03:e9:33:2d:ea:71:76:d6:9f:77:9b:19:33:0c:
         e0:86:13:cc:0a:eb:59:c4:bf:76:2b:ec:87:7c:f6:bb:1f:1a:
         e2:b6:71:7e:9f:94:0d:c4:18:c6:20:66:fd:9b:6a:d2:8c:2e:
         6b:c0:24:a2:f7:98:1b:55:bf:01:69:4d:1f:40:37:87:dc:b2:
         93:6d:54:e1:ac:2f:98:f1:6a:1a:d4:f3:da:43:c9:6b:5c:e2:
         da:b5:b6:2a:df:af:64:67:65:70:dd:d2:9c:25:cf:0c:8b:5b:
         72:91:80:bb:f2:66:70:7f:97:de:c6:8c:26:c5:7c:3a:4c:88:
         c7:c9:4b:b5:b7:7e:cc:19:19:c7:7c:15:6a:9b:67:7a:76:bb:
         8c:0f:86:a6:19:b6:4a:38:3b:a5:35:27:2e:b9:9a:cb:90:55:
         15:65:3e:e2:aa:d5:75:4e:17:c5:97:0f:ae:32:bc:57:64:fa:
         fa:78:34:5e:f8:b0:ab:4e:01:74:cf:7d:21:ad:8f:b1:ed:12:
         b0:b3:de:53:7a:e6:27:31:c0:da:c2:98:83:6e:cc:1f:73:61:
         eb:ef:22:a5:c6:da:c4:2d:17:ad:3b:21:8d:8e:d5:f3:76:54:
         e3:9a:ac:75:36:4f:9b:2f:b7:56:13:da:c8:46:4c:45:bd:ea:
         1d:cd:2c:fd:4a:48:9b:d7:bd:02:69:19:d7:5f:7a:b7:d3:75:
         6b:8c:56:2d:6c:6c:cc:e4:55:46:9c:d9:52:e2:90:c9:71:43:
         0e:9e:da:6e:7b:a8:fd:9e:6a:78:e0:95:30:9d:73:2e:d5:db:
         ea:50:4f:59:7b:50:a2:9e:5e:f2:0e:94:6f:06:d0:1c:91:d3:
         84:fc:57:ac:89:f0:cb:fb:8b:86:dc:e4:56:4f:be:19:a2:14:
         92:6a:7c:e5:88:22:ba:27:47:f2:3d:d3:a2:14:c4:bb:2a:b2:
         76:fa:85:2e:4a:81:23:f0:be:12:c8:0d:cf:fc:47:5e:43:76:
         5a:7f:2b:80:1a:60:dd:fb:e8:9e:a0:d0:5d:b1:4b:48:3f:12:
         7b:9a:63:88:af:5c:84:ff:ab:02:a1:c7:c1:c0:94:e8:00:59:
         bb:f4:39:e4:93:72:a3:b9:d6:c6:b7:cd:a3:0b:70:74:4b:5a:
         81:b0:76:f8:cc:27:21:8c:8c:40:55:da:50:34:0c:17:be:35:
         fb:20:02:99:1a:47:23:99:8b:a5:66:f6:ab:f7:84:f4:44:5e:
         a4:f9:fa:8e:e8:f6:4c:73:9a:4c:a7:c0:70:37:93:8d:76:ad:
         1a:3e:f8:dd:02:dc:a3:6e
-----BEGIN CERTIFICATE-----
MIIFTTCCAzWgAwIBAgIFAIAIJjAwDQYJKoZIhvcNAQELBQAwJzElMCMGA1UEAwwc
U1JLMl9zaGEyNTZfNDA5Nl82NTUzN192M19jYTAgFw0yMzAzMTkwNzIyNDlaGA8y
MTIyMDIyMzA3MjI0OVowKjEoMCYGA1UEAwwfSU1HMl8xX3NoYTI1Nl80MDk2XzY1
NTM3X3YzX3VzcjCCAiIwDQYJKoZIhvcNAQEBBQADggIPADCCAgoCggIBAMDkS2sI
FTcqfUvBAHAfnttuhHSgiyqNJNemRxWSaMd4FyIoHgrNKjU7BiV6Hvv3TD66sXfI
UTlh4j6c8x+/myb++2QskHk75rdSrFgO0oQkt/+UgUao8fxL3z2UGByBzVNXx1Kk
+uwUjKiSajTeCMO/wggx/1lw/GquuSEkWbE4Vr0rkSyw3lWDVxAq6CkeMW0wYQ8x
19Fo0byxmOqsuD2dSw5QlMcXcO5u7P6HxyLVjtWxvfn135NXwyEILxxF9qHDn3Xv
1EaTTVnLkwtQwzYTiFeLbncOHQMrstf6AIAQoGK6cOIy7syPw47tGcx+EZkm/cKz
AJe0vQL0IuOXMvHCznyZIfqZRtnQ2sinaaAic52KsyH0qEGYWoZYREXQ6DkR50gY
b0mqVaGEe8+LEm9vAwls7sKqmUj6eSv08fjmBd1IU7TtllmwinClubp3K7tT+qJD
I3PHPb5qfsJT1o+Z32bAxAqvpjkxn+p+566lSjg03VPd2TnHJW1ssTHtx4RC3uVP
Oi4TcBz+KYvHfe5T0q2hxgHzYdUrtl8rbF2NqB1VSIzGXSF/Wo9FwRmR17/12UZ5
FANPZyDjjZ75s61QKoO6B4r1VCLeTwOOYWVx+bEyF/in9NENl/Nay3h8S1Ko9UPP
PUdhg/RsaaFSJET8n04Iyzxdamqhceeqn2UZAgMBAAGjezB5MAkGA1UdEwQCMAAw
LAYJYIZIAYb4QgENBB8WHU9wZW5TU0wgR2VuZXJhdGVkIENlcnRpZmljYXRlMB0G
A1UdDgQWBBTVI8O5XB1NjBUSq8BiW5e/XtPhEjAfBgNVHSMEGDAWgBRGBSgQOOOd
ZhkHRo1BVShhI0lSHDANBgkqhkiG9w0BAQsFAAOCAgEASeg6dy0w+jyJhd7Aqzec
hpdLu/owLQPpMy3qcXbWn3ebGTMM4IYTzArrWcS/divsh3z2ux8a4rZxfp+UDcQY
xiBm/Ztq0owua8AkoveYG1W/AWlNH0A3h9yyk21U4awvmPFqGtTz2kPJa1zi2rW2
Kt+vZGdlcN3SnCXPDItbcpGAu/JmcH+X3saMJsV8OkyIx8lLtbd+zBkZx3wVaptn
ena7jA+Gphm2Sjg7pTUnLrmay5BVFWU+4qrVdU4XxZcPrjK8V2T6+ng0Xviwq04B
dM99Ia2Pse0SsLPeU3rmJzHA2sKYg27MH3Nh6+8ipcbaxC0XrTshjY7V83ZU45qs
dTZPmy+3VhPayEZMRb3qHc0s/UpIm9e9AmkZ1196t9N1a4xWLWxszORVRpzZUuKQ
yXFDDp7abnuo/Z5qeOCVMJ1zLtXb6lBPWXtQop5e8g6UbwbQHJHThPxXrInwy/uL
htzkVk++GaIUkmp85YgiuidH8j3TohTEuyqydvqFLkqBI/C+EsgNz/xHXkN2Wn8r
gBpg3fvonqDQXbFLSD8Se5pjiK9chP+rAqHHwcCU6ABZu/Q55JNyo7nWxrfNowtw
dEtagbB2+MwnIYyMQFXaUDQMF741+yACmRpHI5mLpWb2q/eE9ERepPn6juj2THOa
TKfAcDeTjXatGj743QLco24=
-----END CERTIFICATE-----
