Certificate:
    Data:
        Version: 3 (0x2)
        Serial Number: 2148017715 (0x80082633)
        Signature Algorithm: sha256WithRSAEncryption
        Issuer: CN=SRK3_sha256_4096_65537_v3_ca
        Validity
            Not Before: Mar 19 07:22:49 2023 GMT
            Not After : Feb 23 07:22:49 2122 GMT
        Subject: CN=IMG3_1_sha256_4096_65537_v3_usr
        Subject Public Key Info:
            Public Key Algorithm: rsaEncryption
                RSA Public-Key: (4096 bit)
                Modulus:
                    00:bb:b3:d4:47:28:a0:93:9d:e2:c6:8f:d0:da:dd:
                    93:e6:64:91:d1:a2:51:da:60:18:d8:8f:27:4a:2d:
                    7c:b3:44:3a:2d:df:59:33:9e:6c:07:51:69:73:23:
                    20:39:0d:1f:27:8b:2b:e0:5c:0c:21:5b:95:ff:46:
                    0e:aa:a7:9c:23:90:51:61:47:5c:74:e8:be:10:a9:
                    9a:42:4b:d1:31:e7:ad:53:1f:14:8d:e1:ed:2f:bd:
                    90:11:02:cd:b4:c9:b2:38:5b:37:22:b1:c5:7d:d0:
                    4b:b1:bb:87:5b:dd:de:07:53:d3:f3:2d:6f:95:00:
                    38:2a:7d:e6:17:0d:e8:ce:11:34:13:ee:2b:a6:f0:
                    4b:96:e8:b3:aa:8f:85:52:59:da:5f:a4:c0:1f:37:
                    8b:a8:fb:b9:73:44:00:d2:76:23:d8:80:32:25:a5:
                    70:25:02:3e:84:38:15:19:81:46:c1:3f:8f:fd:99:
                    8c:48:09:55:9d:eb:d3:2a:a8:81:23:5c:cf:5b:52:
                    6a:6d:6c:91:08:31:97:8f:e4:59:38:38:b9:64:7c:
                    27:a6:a2:77:cf:8b:ad:a0:f2:23:2f:a6:d0:6d:30:
                    0a:73:9f:7f:78:08:bf:a7:24:3d:ce:c3:08:c9:36:
                    0b:b3:d2:5d:63:e2:87:13:33:18:da:8c:a1:a3:ef:
                    4c:6d:9a:20:cd:ee:df:41:4a:b6:00:29:81:1a:29:
                    ba:0e:c7:dc:4d:41:d3:8a:66:a7:ab:fa:4d:ad:34:
                    a7:7a:95:f5:2b:80:00:66:1a:1c:ac:68:99:db:5a:
                    d5:16:74:b6:6b:93:4b:04:15:43:74:91:2d:9d:73:
                    f7:6a:80:9e:bb:49:fb:dd:2b:40:71:29:72:f6:8e:
                    df:f7:c6:e3:0a:a2:a6:3c:61:a9:48:dd:2d:a0:ae:
                    64:b1:58:fd:1b:68:c6:44:0f:ce:2c:e5:fd:a7:f1:
                    06:ef:55:02:6f:d1:87:2e:64:8e:5a:6e:ae:c1:f0:
                    e6:4f:31:db:24:a5:40:f7:d3:4b:86:0c:97:dc:1e:
                    65:42:a1:bf:33:7b:78:f0:aa:5c:ec:94:18:2a:80:
                    db:b6:e7:fc:1e:96:02:03:b3:7e:f5:2b:38:0d:56:
                    55:89:f0:eb:3a:53:dc:b7:2e:ca:95:62:e4:aa:cb:
                    03:19:eb:11:29:58:05:98:0b:a3:79:90:17:d1:47:
                    93:26:53:25:fd:40:f4:aa:65:bd:7b:37:4b:b0:61:
                    3a:d8:2e:8d:67:cf:a9:d7:67:18:5d:31:95:f7:36:
                    a6:86:bf:e4:5f:32:d7:35:23:73:7e:76:a9:f1:7c:
                    d1:7c:fd:20:6a:10:98:94:c0:f9:6b:31:c9:87:d7:
                    03:c3:29
                Exponent: 65537 (0x10001)
        X509v3 extensions:
            X509v3 Basic Constraints: 
                CA:FALSE
            Netscape Comment: 
                OpenSSL Generated Certificate
            X509v3 Subject Key Identifier: 
                9A:C3:8C:9F:CC:B2:24:2F:33:13:1A:1C:2E:7D:70:79:FD:9F:75:41
            X509v3 Authority Key Identifier: 
                keyid:FD:15:D8:A1:09:A0:2D:5B:94:2A:E6:EC:28:FC:56:B0:BF:91:5F:23

    Signature Algorithm: sha256WithRSAEncryption
         a5:cf:ad:f4:56:74:e3:d8:d2:30:35:9a:b3:15:b6:9e:71:3d:
         5e:14:d4:28:db:02:b9:6a:ad:fb:c9:ef:43:ea:98:88:2b:7b:
         7b:15:09:0e:ab:aa:af:2e:c4:43:2d:b7:cd:bd:b8:0e:fa:4c:
         46:fd:25:f8:8f:e2:b7:e3:d4:63:10:59:d4:58:d2:f5:20:a7:
         fc:4c:f6:cf:57:af:0a:d6:1c:cd:3f:2b:54:14:5d:77:c1:71:
         8f:15:3c:31:d8:f9:d3:8b:03:9e:f1:a8:49:f9:38:50:9b:09:
         1e:1b:3f:78:75:bd:f0:0e:09:47:fc:c7:e1:9b:49:3c:52:49:
         13:bf:b0:da:97:22:f0:6e:89:2a:39:ed:11:6d:fe:33:24:4a:
         23:2f:cd:2d:63:ce:36:a3:38:60:71:79:c9:29:f1:09:3d:0e:
         f0:24:e7:22:3a:a7:7d:e2:8a:e6:00:44:b1:5d:14:75:0b:a5:
         16:12:05:62:fc:a0:03:c5:16:4f:43:42:84:72:16:5c:3f:5b:
         45:a1:a7:4e:4c:54:2e:e7:62:eb:91:2f:8a:54:87:39:f9:06:
         b3:b8:e4:16:d1:4f:11:ce:9c:78:c6:27:52:2b:55:10:f4:c4:
         15:b6:16:1d:dd:9e:62:ea:f3:60:15:4a:e5:8c:a2:7c:ad:b4:
         2b:0e:c6:c6:fc:95:57:7a:6f:7b:73:de:7c:72:07:28:28:72:
         44:03:87:90:93:06:cd:0a:ff:8b:e9:5f:0f:28:b3:fe:f0:3f:
         42:ec:1f:fa:4b:16:ad:e4:0c:58:35:06:13:6e:d4:d2:d6:26:
         fd:a7:65:24:d9:89:24:6d:0e:a8:db:b8:25:4f:d1:f6:28:21:
         ec:f6:81:54:c3:2e:a2:16:4e:7d:88:f6:24:ce:66:0a:e3:85:
         a2:f7:21:4c:56:3d:a3:cc:8a:e7:21:ff:01:ee:44:d3:cf:4b:
         68:35:19:c4:3d:31:bb:c5:8a:37:17:82:6a:fd:f3:36:71:19:
         42:94:c3:57:37:c2:55:12:0a:c4:35:33:3c:d0:e3:fa:f0:6d:
         1b:a9:34:cb:b3:f3:16:4a:88:4c:a5:f0:d7:82:d4:b4:9b:9a:
         5e:79:48:04:3e:93:47:5a:5a:fd:82:ca:0d:55:77:b1:b7:2c:
         1f:e9:5f:57:05:42:0f:ff:c2:18:39:9a:d6:69:58:07:40:83:
         fe:8f:b0:3a:95:95:5f:58:72:12:f3:b1:99:89:ba:13:d3:49:
         bd:6b:78:16:cf:cf:f0:3a:ec:64:55:44:63:0d:2d:3b:6d:e5:
         3e:27:c8:87:fe:94:5f:51:39:8f:f1:3c:df:28:0b:25:aa:be:
         5a:41:96:e7:09:2f:7e:31
-----BEGIN CERTIFICATE-----
MIIFTTCCAzWgAwIBAgIFAIAIJjMwDQYJKoZIhvcNAQELBQAwJzElMCMGA1UEAwwc
U1JLM19zaGEyNTZfNDA5Nl82NTUzN192M19jYTAgFw0yMzAzMTkwNzIyNDlaGA8y
MTIyMDIyMzA3MjI0OVowKjEoMCYGA1UEAwwfSU1HM18xX3NoYTI1Nl80MDk2XzY1
NTM3X3YzX3VzcjCCAiIwDQYJKoZIhvcNAQEBBQADggIPADCCAgoCggIBALuz1Eco
oJOd4saP0Nrdk+ZkkdGiUdpgGNiPJ0otfLNEOi3fWTOebAdRaXMjIDkNHyeLK+Bc
DCFblf9GDqqnnCOQUWFHXHTovhCpmkJL0THnrVMfFI3h7S+9kBECzbTJsjhbNyKx
xX3QS7G7h1vd3gdT0/Mtb5UAOCp95hcN6M4RNBPuK6bwS5bos6qPhVJZ2l+kwB83
i6j7uXNEANJ2I9iAMiWlcCUCPoQ4FRmBRsE/j/2ZjEgJVZ3r0yqogSNcz1tSam1s
kQgxl4/kWTg4uWR8J6aid8+LraDyIy+m0G0wCnOff3gIv6ckPc7DCMk2C7PSXWPi
hxMzGNqMoaPvTG2aIM3u30FKtgApgRopug7H3E1B04pmp6v6Ta00p3qV9SuAAGYa
HKxomdta1RZ0tmuTSwQVQ3SRLZ1z92qAnrtJ+90rQHEpcvaO3/fG4wqipjxhqUjd
LaCuZLFY/RtoxkQPzizl/afxBu9VAm/Rhy5kjlpursHw5k8x2ySlQPfTS4YMl9we
ZUKhvzN7ePCqXOyUGCqA27bn/B6WAgOzfvUrOA1WVYnw6zpT3LcuypVi5KrLAxnr
ESlYBZgLo3mQF9FHkyZTJf1A9KplvXs3S7BhOtgujWfPqddnGF0xlfc2poa/5F8y
1zUjc352qfF80Xz9IGoQmJTA+WsxyYfXA8MpAgMBAAGjezB5MAkGA1UdEwQCMAAw
LAYJYIZIAYb4QgENBB8WHU9wZW5TU0wgR2VuZXJhdGVkIENlcnRpZmljYXRlMB0G
A1UdDgQWBBSaw4yfzLIkLzMTGhwufXB5/Z91QTAfBgNVHSMEGDAWgBT9FdihCaAt
W5Qq5uwo/Fawv5FfIzANBgkqhkiG9w0BAQsFAAOCAgEApc+t9FZ049jSMDWasxW2
nnE9XhTUKNsCuWqt+8nvQ+qYiCt7exUJDquqry7EQy23zb24DvpMRv0l+I/it+PU
YxBZ1FjS9SCn/Ez2z1evCtYczT8rVBRdd8FxjxU8Mdj504sDnvGoSfk4UJsJHhs/
eHW98A4JR/zH4ZtJPFJJE7+w2pci8G6JKjntEW3+MyRKIy/NLWPONqM4YHF5ySnx
CT0O8CTnIjqnfeKK5gBEsV0UdQulFhIFYvygA8UWT0NChHIWXD9bRaGnTkxULudi
65EvilSHOfkGs7jkFtFPEc6ceMYnUitVEPTEFbYWHd2eYurzYBVK5YyifK20Kw7G
xvyVV3pve3PefHIHKChyRAOHkJMGzQr/i+lfDyiz/vA/Quwf+ksWreQMWDUGE27U
0tYm/adlJNmJJG0OqNu4JU/R9igh7PaBVMMuohZOfYj2JM5mCuOFovchTFY9o8yK
5yH/Ae5E089LaDUZxD0xu8WKNxeCav3zNnEZQpTDVzfCVRIKxDUzPNDj+vBtG6k0
y7PzFkqITKXw14LUtJuaXnlIBD6TR1pa/YLKDVV3sbcsH+lfVwVCD//CGDma1mlY
B0CD/o+wOpWVX1hyEvOxmYm6E9NJvWt4Fs/P8DrsZFVEYw0tO23lPifIh/6UX1E5
j/E83ygLJaq+WkGW5wkvfjE=
-----END CERTIFICATE-----
