Certificate:
    Data:
        Version: 3 (0x2)
        Serial Number: 2148017718 (0x80082636)
        Signature Algorithm: sha256WithRSAEncryption
        Issuer: CN=SRK4_sha256_4096_65537_v3_ca
        Validity
            Not Before: Mar 19 07:22:50 2023 GMT
            Not After : Feb 23 07:22:50 2122 GMT
        Subject: CN=IMG4_1_sha256_4096_65537_v3_usr
        Subject Public Key Info:
            Public Key Algorithm: rsaEncryption
                RSA Public-Key: (4096 bit)
                Modulus:
                    00:e9:17:e5:81:3d:da:e4:52:ec:d9:71:84:01:b9:
                    cf:4b:71:25:42:4d:de:9a:82:87:41:8f:a0:0b:6f:
                    6f:bc:94:66:1f:9e:96:e3:83:3c:7c:32:a5:d6:71:
                    cd:44:f8:f8:69:95:67:97:72:8e:9b:30:b5:53:21:
                    83:2f:5b:24:f7:9c:b6:03:0d:79:0a:8c:e3:37:bc:
                    45:47:b7:33:e6:8f:1a:6d:38:a1:a2:7d:0b:91:c4:
                    25:1b:3c:89:2f:57:39:20:98:32:28:d1:03:2a:1b:
                    dc:94:69:c0:2c:25:d5:58:38:2f:c4:38:bf:ad:3b:
                    6b:bf:23:f0:44:98:7a:91:35:b9:0b:de:d6:44:c7:
                    81:a4:c0:6c:40:96:14:e6:42:8d:5e:9a:42:c8:6a:
                    37:2e:f8:08:ca:45:03:0d:40:d1:eb:2c:06:87:74:
                    fd:a9:2b:a0:c3:1a:7b:3e:b0:e7:f9:17:7f:eb:cf:
                    ff:6d:49:77:02:df:1b:5e:56:b1:8a:ff:25:3b:7f:
                    59:ed:88:74:72:ba:9e:de:66:73:34:b0:7a:05:68:
                    cf:07:79:82:87:e3:77:3d:d4:d8:b1:3b:7c:d4:dc:
                    7f:37:b3:f6:61:47:4e:63:39:97:df:62:ca:d8:11:
                    41:dd:f8:6a:62:9e:9f:06:bc:78:11:be:6e:5b:b9:
                    f3:6c:f7:d9:12:14:90:8f:27:61:b2:45:1a:ce:16:
                    5f:7a:ee:6b:14:db:c4:d7:c8:11:e7:4c:a3:f3:d8:
                    8f:39:b2:6a:3a:e9:fd:26:1b:f4:6c:d0:17:ad:0d:
                    a2:ce:19:dd:4d:4b:ec:bb:47:65:a2:44:98:57:96:
                    03:21:4d:0e:a4:1b:7f:61:77:b6:6f:03:f9:3e:66:
                    5c:e7:fe:22:2a:95:8b:6c:81:ca:ed:ec:62:59:df:
                    56:39:05:87:8d:19:b0:4e:1e:66:75:46:d2:b5:a4:
                    78:51:56:12:05:15:73:68:83:f5:13:e3:35:71:af:
                    0a:ff:1f:fe:a7:2b:65:55:d2:06:0a:88:05:8d:00:
                    40:6d:7b:c8:66:95:f5:d8:dd:fd:ee:00:cb:d2:98:
                    69:7b:dc:04:02:00:49:f3:a9:aa:65:4c:8e:8f:b2:
                    87:e1:13:0b:8b:8e:49:a9:b4:5c:bb:83:1d:9d:e3:
                    49:a3:6b:0b:33:46:17:06:d5:e1:9e:ba:58:fe:b3:
                    f8:5e:04:87:50:e2:46:48:0e:ba:b4:5e:b6:61:d0:
                    c4:39:51:cf:94:7a:b3:f5:49:c3:10:38:58:4a:0e:
                    2f:f1:c3:25:f8:bb:bb:66:ea:4f:d6:9f:c2:a4:64:
                    f3:87:6c:ac:4d:18:ef:f3:5f:36:2a:36:bd:83:10:
                    ab:b0:f9
                Exponent: 65537 (0x10001)
        X509v3 extensions:
            X509v3 Basic Constraints: 
                CA:FALSE
            Netscape Comment: 
                OpenSSL Generated Certificate
            X509v3 Subject Key Identifier: 
                1E:1D:4D:AB:07:22:C1:50:FE:30:23:AF:D1:FA:D2:B0:A4:BF:8C:0D
            X509v3 Authority Key Identifier: 
                keyid:66:B2:66:7D:17:AC:4D:D8:25:4E:4A:E9:CF:70:55:DE:45:21:D8:40

    Signature Algorithm: sha256WithRSAEncryption
         b6:a3:48:20:fa:d2:3c:9e:5e:fc:9f:55:44:62:f2:e9:5d:dc:
         3a:03:ff:ef:45:10:ef:ac:d3:7f:ac:ec:e5:81:14:c5:2a:0d:
         c7:ef:51:64:ec:14:16:9d:7a:0f:95:52:09:f4:37:f8:46:42:
         e3:98:d1:2b:d5:37:84:2b:53:bb:be:23:e8:71:cf:94:d4:51:
         31:30:52:c9:4e:63:71:33:f1:7f:8c:dc:7b:b8:26:78:fe:90:
         c8:05:1f:3d:e9:26:8a:63:7e:01:32:c9:fe:1e:b4:3b:39:8a:
         a9:a2:da:f1:0a:86:44:38:f0:55:4d:40:3f:42:a3:cd:e9:df:
         e6:82:74:b0:55:3b:90:ae:68:fe:a5:88:c1:fb:ce:14:95:47:
         cb:cb:72:f7:f1:8a:12:07:11:fc:04:ba:40:ac:47:a0:39:27:
         33:27:c1:be:8a:21:19:5f:96:0d:0d:0f:ab:5d:32:80:66:68:
         35:d3:e1:ad:38:03:9a:9e:49:2b:59:61:ae:fc:15:3b:55:50:
         ef:72:85:0e:b0:01:84:75:a2:b7:6a:17:43:29:28:95:d3:e3:
         b2:16:47:23:fe:f5:13:d8:0c:9c:81:0b:aa:97:da:40:5d:5d:
         a2:d0:d8:f4:22:87:f8:e6:27:6d:ff:7c:48:5a:9a:94:db:1e:
         44:f4:d8:8d:8e:80:1f:df:3e:b3:2a:44:c9:fe:94:79:86:07:
         1f:26:a8:10:55:22:f3:53:2a:ff:13:17:1d:80:ed:67:a9:4d:
         51:f6:c4:4b:ca:2f:3c:1c:1f:d4:db:32:49:c0:00:d3:d3:b7:
         3e:88:ef:f5:bc:f7:37:68:54:aa:f9:2e:3d:67:bb:0d:aa:ca:
         53:20:d3:22:22:4b:45:35:24:98:7b:13:c7:04:5d:d7:2b:db:
         6f:d1:de:30:28:33:33:ce:32:35:f1:c5:a1:de:32:e7:71:a3:
         a3:0f:91:9d:a9:52:45:4e:bd:d2:91:b0:72:5f:16:fa:9a:bc:
         06:bd:4d:6c:ec:76:77:46:5e:3f:51:fd:f2:2a:72:37:a2:d2:
         f2:22:4a:28:de:5e:63:c8:c5:53:7d:c6:d7:0b:4e:be:7a:cd:
         a5:d1:da:e0:27:e1:27:d9:fb:44:fb:cf:b7:65:6e:14:36:d7:
         2a:96:d0:2b:7b:b0:9a:c1:7b:5a:02:32:a5:21:16:36:af:60:
         2a:6c:09:08:8b:cd:6a:cf:5f:1c:f3:48:ed:54:d8:08:10:44:
         89:6a:18:2d:06:92:cb:7a:e8:3a:87:0c:3d:77:9a:48:4a:e3:
         f9:70:e4:29:39:c0:37:7d:eb:02:7d:06:56:72:9b:03:e8:7d:
         15:4d:14:88:b4:44:b9:9d
-----BEGIN CERTIFICATE-----
MIIFTTCCAzWgAwIBAgIFAIAIJjYwDQYJKoZIhvcNAQELBQAwJzElMCMGA1UEAwwc
U1JLNF9zaGEyNTZfNDA5Nl82NTUzN192M19jYTAgFw0yMzAzMTkwNzIyNTBaGA8y
MTIyMDIyMzA3MjI1MFowKjEoMCYGA1UEAwwfSU1HNF8xX3NoYTI1Nl80MDk2XzY1
NTM3X3YzX3VzcjCCAiIwDQYJKoZIhvcNAQEBBQADggIPADCCAgoCggIBAOkX5YE9
2uRS7NlxhAG5z0txJUJN3pqCh0GPoAtvb7yUZh+eluODPHwypdZxzUT4+GmVZ5dy
jpswtVMhgy9bJPectgMNeQqM4ze8RUe3M+aPGm04oaJ9C5HEJRs8iS9XOSCYMijR
Ayob3JRpwCwl1Vg4L8Q4v607a78j8ESYepE1uQve1kTHgaTAbECWFOZCjV6aQshq
Ny74CMpFAw1A0essBod0/akroMMaez6w5/kXf+vP/21JdwLfG15WsYr/JTt/We2I
dHK6nt5mczSwegVozwd5gofjdz3U2LE7fNTcfzez9mFHTmM5l99iytgRQd34amKe
nwa8eBG+blu582z32RIUkI8nYbJFGs4WX3ruaxTbxNfIEedMo/PYjzmyajrp/SYb
9GzQF60Nos4Z3U1L7LtHZaJEmFeWAyFNDqQbf2F3tm8D+T5mXOf+IiqVi2yByu3s
YlnfVjkFh40ZsE4eZnVG0rWkeFFWEgUVc2iD9RPjNXGvCv8f/qcrZVXSBgqIBY0A
QG17yGaV9djd/e4Ay9KYaXvcBAIASfOpqmVMjo+yh+ETC4uOSam0XLuDHZ3jSaNr
CzNGFwbV4Z66WP6z+F4Eh1DiRkgOurRetmHQxDlRz5R6s/VJwxA4WEoOL/HDJfi7
u2bqT9afwqRk84dsrE0Y7/NfNio2vYMQq7D5AgMBAAGjezB5MAkGA1UdEwQCMAAw
LAYJYIZIAYb4QgENBB8WHU9wZW5TU0wgR2VuZXJhdGVkIENlcnRpZmljYXRlMB0G
A1UdDgQWBBQeHU2rByLBUP4wI6/R+tKwpL+MDTAfBgNVHSMEGDAWgBRmsmZ9F6xN
2CVOSunPcFXeRSHYQDANBgkqhkiG9w0BAQsFAAOCAgEAtqNIIPrSPJ5e/J9VRGLy
6V3cOgP/70UQ76zTf6zs5YEUxSoNx+9RZOwUFp16D5VSCfQ3+EZC45jRK9U3hCtT
u74j6HHPlNRRMTBSyU5jcTPxf4zce7gmeP6QyAUfPekmimN+ATLJ/h60OzmKqaLa
8QqGRDjwVU1AP0Kjzenf5oJ0sFU7kK5o/qWIwfvOFJVHy8ty9/GKEgcR/AS6QKxH
oDknMyfBvoohGV+WDQ0Pq10ygGZoNdPhrTgDmp5JK1lhrvwVO1VQ73KFDrABhHWi
t2oXQykoldPjshZHI/71E9gMnIELqpfaQF1dotDY9CKH+OYnbf98SFqalNseRPTY
jY6AH98+sypEyf6UeYYHHyaoEFUi81Mq/xMXHYDtZ6lNUfbES8ovPBwf1NsyScAA
09O3Pojv9bz3N2hUqvkuPWe7DarKUyDTIiJLRTUkmHsTxwRd1yvbb9HeMCgzM84y
NfHFod4y53Gjow+RnalSRU690pGwcl8W+pq8Br1NbOx2d0ZeP1H98ipyN6LS8iJK
KN5eY8jFU33G1wtOvnrNpdHa4CfhJ9n7RPvPt2VuFDbXKpbQK3uwmsF7WgIypSEW
Nq9gKmwJCIvNas9fHPNI7VTYCBBEiWoYLQaSy3roOocMPXeaSErj+XDkKTnAN33r
An0GVnKbA+h9FU0UiLREuZ0=
-----END CERTIFICATE-----
