Certificate:
    Data:
        Version: 3 (0x2)
        Serial Number: 2148017716 (0x80082634)
        Signature Algorithm: sha256WithRSAEncryption
        Issuer: CN=CA1_sha256_4096_65537_v3_ca
        Validity
            Not Before: Mar 19 07:22:49 2023 GMT
            Not After : Feb 23 07:22:49 2122 GMT
        Subject: CN=SRK4_sha256_4096_65537_v3_ca
        Subject Public Key Info:
            Public Key Algorithm: rsaEncryption
                RSA Public-Key: (4096 bit)
                Modulus:
                    00:ed:78:af:eb:15:5a:ac:8e:d2:ad:75:82:86:f8:
                    cf:57:80:81:32:f5:0a:ad:9c:9a:5d:32:a0:5a:92:
                    e4:4e:12:4b:59:ab:e3:b3:ae:e8:9e:d2:7a:58:e3:
                    57:a1:08:fb:60:26:0c:3b:08:52:5e:07:7b:f5:ca:
                    86:95:d6:78:2e:39:27:30:42:de:bf:5d:b8:34:4b:
                    f0:6d:bf:f2:4a:89:e9:1e:f8:7f:5c:8d:71:63:b0:
                    14:25:d8:f7:69:32:98:22:71:7a:76:78:5d:e5:83:
                    e4:52:76:48:61:8e:a5:4a:2a:41:ce:b4:88:6d:c9:
                    bd:46:bc:a4:7b:c8:c7:10:3e:4c:25:ff:eb:83:18:
                    dc:7e:c5:21:fb:b6:46:29:70:95:d3:c6:49:6e:88:
                    1c:73:c6:6c:f7:90:ce:3d:e4:80:84:7c:ed:bd:02:
                    a2:d8:cc:f3:a4:f7:b3:c5:6c:a6:6f:12:92:f2:eb:
                    98:52:2f:d2:a0:a9:b7:db:27:fe:b1:92:fa:b9:88:
                    0b:47:a1:a1:90:af:1d:92:e6:c4:58:54:46:a6:66:
                    27:60:18:aa:88:22:a4:48:79:91:ca:77:9d:01:4f:
                    24:ac:4c:c7:d8:e6:f5:05:69:a3:41:df:63:2b:0d:
                    a2:06:d3:42:96:ac:83:5a:34:d8:f8:5a:ce:e4:a4:
                    c3:e5:5b:e1:ef:e3:b5:39:06:97:dd:ce:95:8f:ce:
                    b5:e9:8a:bb:65:1a:63:d4:fa:17:a8:22:12:c9:92:
                    f3:29:9c:d7:fd:c4:03:6d:8e:22:be:8c:6d:84:52:
                    ed:12:f4:43:7b:da:e2:3e:ea:7b:f9:32:7b:c9:cb:
                    62:6b:9c:59:55:78:e9:9a:65:a0:af:05:7f:ba:05:
                    be:4f:78:18:f1:dd:31:2a:84:e2:82:e5:f9:c8:ef:
                    ca:47:8d:e5:05:bd:b7:7a:9b:a3:17:72:12:b5:54:
                    8b:81:db:36:00:c3:b1:38:35:0b:98:96:8a:fb:d2:
                    7a:c6:c9:6a:9e:e9:a5:96:cd:50:d4:c8:aa:0e:5d:
                    04:05:2a:b5:05:f2:20:c4:13:22:cd:ef:81:c2:3c:
                    f8:e4:37:37:bf:3a:f1:ec:5f:b2:82:52:92:38:6d:
                    d1:9d:a1:9f:d2:8b:51:26:d8:9b:c1:0c:38:79:d2:
                    69:eb:be:8e:b5:f6:32:30:27:46:a2:81:55:e8:e9:
                    e9:ef:07:f6:44:3f:80:18:6f:93:f6:80:95:ed:80:
                    40:51:cf:64:19:c9:05:37:48:e3:e0:2e:d4:88:3c:
                    bd:b6:82:20:45:47:50:50:ab:11:09:b7:74:b4:ea:
                    22:c0:e9:e0:77:73:5d:43:a0:22:c2:f5:52:b4:23:
                    c9:5e:e9
                Exponent: 65537 (0x10001)
        X509v3 extensions:
            X509v3 Subject Key Identifier: 
                66:B2:66:7D:17:AC:4D:D8:25:4E:4A:E9:CF:70:55:DE:45:21:D8:40
            X509v3 Authority Key Identifier: 
                keyid:3F:B2:FD:0B:44:F6:6A:82:7C:5A:58:24:1E:A7:13:19:44:AF:19:73
                DirName:/CN=CA1_sha256_4096_65537_v3_ca
                serial:02:68:3D:E1:3E:BC:2C:0F:A6:00:AB:37:6E:11:31:C0:56:73:7A:F2

            X509v3 Basic Constraints: critical
                CA:TRUE
            X509v3 Key Usage: 
                Certificate Sign
    Signature Algorithm: sha256WithRSAEncryption
         8f:1b:4b:80:79:3d:2a:a6:b1:c1:4a:b3:3b:e6:60:28:0d:76:
         95:38:8a:f2:b8:43:5d:00:f5:50:b2:a0:46:31:95:49:77:75:
         91:2e:66:24:30:a6:12:e4:0f:2e:07:34:32:9a:90:d0:d3:31:
         c4:60:33:b5:54:b1:dd:01:7f:3a:d6:71:a9:75:56:ba:39:66:
         8b:bf:b6:fd:da:60:be:62:9f:6f:06:45:90:49:2e:37:47:a2:
         75:a7:6f:55:a5:f0:d9:66:46:54:29:6b:3c:79:48:39:2b:40:
         9d:23:77:58:72:f6:2d:bd:a1:ce:19:0b:f9:df:d7:6b:40:93:
         d2:ba:28:84:8d:72:cf:62:47:1f:66:a2:3f:0d:9e:c7:6f:5a:
         90:cb:a7:be:bb:d9:ff:3a:1f:a2:24:21:99:5b:79:b2:f7:d6:
         44:13:23:43:3d:eb:58:1c:a0:6f:d6:c0:d6:94:ce:8f:60:d5:
         5c:cc:3d:60:ab:00:83:7d:9d:ce:ae:34:d0:55:42:dc:48:21:
         e3:23:b2:25:de:9e:2f:80:95:1d:37:22:5e:b3:2e:a8:c5:f8:
         e4:34:c2:7c:f4:a9:68:80:e9:83:87:87:e5:ab:c9:59:8a:24:
         de:4d:1e:9b:9c:b6:84:06:21:5e:d2:00:bc:25:be:7d:c1:58:
         b8:a5:0d:86:55:ec:7f:f6:3e:1d:31:5f:5c:9b:11:4a:c4:88:
         ef:27:60:4d:a2:5e:bd:ee:a8:39:f2:28:65:33:92:d9:77:a8:
         66:42:85:be:ed:a9:27:d9:31:34:98:40:f5:a3:a6:99:80:00:
         de:8a:76:f9:9e:c9:92:ef:81:34:db:68:1c:87:37:4c:60:f9:
         57:5b:a9:f0:62:25:cf:4d:96:25:0d:ae:9c:4c:04:23:66:9f:
         52:f2:95:dd:d6:25:87:b4:a4:ee:5d:ac:83:3e:df:4b:b2:46:
         4a:e8:be:62:69:b0:d3:3a:d6:7c:95:d0:b7:e6:6c:3f:fe:94:
         2c:ee:d7:0e:7f:ee:53:30:b6:d5:59:ac:d0:f1:90:db:c7:d2:
         d0:89:bc:15:3a:ca:14:52:8d:2d:83:82:ea:30:cf:42:b7:bd:
         e5:ba:af:29:9f:21:d7:9d:de:3e:1e:49:71:73:2a:57:16:72:
         b4:a3:52:0d:8f:8a:e9:fb:31:8b:fb:0c:c6:b9:6d:af:54:be:
         96:22:08:f4:e6:c0:8b:7b:fc:02:08:13:db:eb:21:3d:47:63:
         68:b9:12:55:6b:31:37:7b:de:7d:52:10:10:3b:1b:77:06:d6:
         0a:a1:5b:1f:35:48:b2:14:22:c4:0d:aa:5a:da:fe:bf:e0:4d:
         d1:9e:67:93:fb:2b:16:9e
-----BEGIN CERTIFICATE-----
MIIFcjCCA1qgAwIBAgIFAIAIJjQwDQYJKoZIhvcNAQELBQAwJjEkMCIGA1UEAxQb
Q0ExX3NoYTI1Nl80MDk2XzY1NTM3X3YzX2NhMCAXDTIzMDMxOTA3MjI0OVoYDzIx
MjIwMjIzMDcyMjQ5WjAnMSUwIwYDVQQDDBxTUks0X3NoYTI1Nl80MDk2XzY1NTM3
X3YzX2NhMIICIjANBgkqhkiG9w0BAQEFAAOCAg8AMIICCgKCAgEA7Xiv6xVarI7S
rXWChvjPV4CBMvUKrZyaXTKgWpLkThJLWavjs67ontJ6WONXoQj7YCYMOwhSXgd7
9cqGldZ4LjknMELev124NEvwbb/ySonpHvh/XI1xY7AUJdj3aTKYInF6dnhd5YPk
UnZIYY6lSipBzrSIbcm9Rryke8jHED5MJf/rgxjcfsUh+7ZGKXCV08ZJbogcc8Zs
95DOPeSAhHztvQKi2MzzpPezxWymbxKS8uuYUi/SoKm32yf+sZL6uYgLR6GhkK8d
kubEWFRGpmYnYBiqiCKkSHmRynedAU8krEzH2Ob1BWmjQd9jKw2iBtNClqyDWjTY
+FrO5KTD5Vvh7+O1OQaX3c6Vj8616Yq7ZRpj1PoXqCISyZLzKZzX/cQDbY4ivoxt
hFLtEvRDe9riPup7+TJ7yctia5xZVXjpmmWgrwV/ugW+T3gY8d0xKoTiguX5yO/K
R43lBb23epujF3IStVSLgds2AMOxODULmJaK+9J6xslqnumlls1Q1MiqDl0EBSq1
BfIgxBMize+Bwjz45Dc3vzrx7F+yglKSOG3RnaGf0otRJtibwQw4edJp676OtfYy
MCdGooFV6Onp7wf2RD+AGG+T9oCV7YBAUc9kGckFN0jj4C7UiDy9toIgRUdQUKsR
Cbd0tOoiwOngd3NdQ6AiwvVStCPJXukCAwEAAaOBozCBoDAdBgNVHQ4EFgQUZrJm
fResTdglTkrpz3BV3kUh2EAwYQYDVR0jBFowWIAUP7L9C0T2aoJ8WlgkHqcTGUSv
GXOhKqQoMCYxJDAiBgNVBAMUG0NBMV9zaGEyNTZfNDA5Nl82NTUzN192M19jYYIU
Amg94T68LA+mAKs3bhExwFZzevIwDwYDVR0TAQH/BAUwAwEB/zALBgNVHQ8EBAMC
AgQwDQYJKoZIhvcNAQELBQADggIBAI8bS4B5PSqmscFKszvmYCgNdpU4ivK4Q10A
9VCyoEYxlUl3dZEuZiQwphLkDy4HNDKakNDTMcRgM7VUsd0BfzrWcal1Vro5Zou/
tv3aYL5in28GRZBJLjdHonWnb1Wl8NlmRlQpazx5SDkrQJ0jd1hy9i29oc4ZC/nf
12tAk9K6KISNcs9iRx9moj8NnsdvWpDLp7672f86H6IkIZlbebL31kQTI0M961gc
oG/WwNaUzo9g1VzMPWCrAIN9nc6uNNBVQtxIIeMjsiXeni+AlR03Il6zLqjF+OQ0
wnz0qWiA6YOHh+WryVmKJN5NHpuctoQGIV7SALwlvn3BWLilDYZV7H/2Ph0xX1yb
EUrEiO8nYE2iXr3uqDnyKGUzktl3qGZChb7tqSfZMTSYQPWjppmAAN6KdvmeyZLv
gTTbaByHN0xg+VdbqfBiJc9NliUNrpxMBCNmn1Lyld3WJYe0pO5drIM+30uyRkro
vmJpsNM61nyV0LfmbD/+lCzu1w5/7lMwttVZrNDxkNvH0tCJvBU6yhRSjS2Dguow
z0K3veW6rymfIded3j4eSXFzKlcWcrSjUg2Piun7MYv7DMa5ba9UvpYiCPTmwIt7
/AIIE9vrIT1HY2i5ElVrMTd73n1SEBA7G3cG1gqhWx81SLIUIsQNqlra/r/gTdGe
Z5P7Kxae
-----END CERTIFICATE-----
