Certificate:
    Data:
        Version: 3 (0x2)
        Serial Number: 2148017709 (0x8008262d)
        Signature Algorithm: sha256WithRSAEncryption
        Issuer: CN=SRK1_sha256_4096_65537_v3_ca
        Validity
            Not Before: Mar 19 07:22:47 2023 GMT
            Not After : Feb 23 07:22:47 2122 GMT
        Subject: CN=IMG1_1_sha256_4096_65537_v3_usr
        Subject Public Key Info:
            Public Key Algorithm: rsaEncryption
                RSA Public-Key: (4096 bit)
                Modulus:
                    00:ec:4b:d0:d4:0c:d2:86:7f:1a:19:8e:8c:7c:d3:
                    3e:dc:18:e1:ec:b3:b6:e7:2b:23:ac:b3:c4:c1:f2:
                    d5:38:77:0e:7c:60:36:9e:1c:88:55:40:99:90:fb:
                    5a:83:43:af:4a:0b:92:c6:53:c2:57:4a:81:f9:16:
                    b0:c1:d0:77:60:a5:89:91:df:e1:ca:fc:92:c8:34:
                    34:69:cf:82:a3:b1:d3:b4:bc:66:40:6d:01:03:49:
                    47:be:0b:b5:9c:18:3d:83:c0:8b:9d:ab:1d:52:76:
                    bd:40:9f:55:4e:9b:a8:3b:8e:a9:f4:64:80:bd:d6:
                    39:68:c4:8c:54:40:17:1d:72:d2:8b:ab:06:37:2d:
                    19:9b:27:6e:f4:ab:8e:fc:8b:f1:dc:45:71:76:f5:
                    cf:99:0b:85:ca:15:b9:73:f7:17:ea:5c:97:94:43:
                    35:85:bc:14:a0:ea:92:78:35:10:dd:0d:8d:16:d1:
                    07:14:fb:48:01:29:93:15:dd:5c:59:75:35:62:c1:
                    59:75:a2:d3:66:8c:07:ae:1e:72:1d:1f:83:83:2d:
                    19:50:c2:ee:9e:3b:30:c6:87:9e:e6:27:09:37:f0:
                    0f:56:6b:91:5c:d2:51:16:c5:e6:0a:ae:d7:e7:c7:
                    53:51:fd:17:61:da:ab:06:5d:92:26:f4:8e:7c:96:
                    21:4f:23:b9:1c:cc:39:8b:d9:30:f0:5b:79:c4:21:
                    15:1b:2e:cf:5f:07:a4:39:8c:fe:33:7b:be:97:e4:
                    89:e9:39:5c:c7:1a:e0:0e:50:60:d5:60:2f:c0:c7:
                    17:09:da:7a:6b:02:9f:dc:e2:a7:33:d8:31:d8:d3:
                    8d:c9:be:94:0a:3b:3f:d2:bd:8f:fe:bb:cc:e4:04:
                    c5:0f:85:f4:a5:0d:e3:83:94:ba:f0:ba:cc:dd:a8:
                    5b:fe:ba:c1:ed:a7:b4:a6:79:a2:7e:7c:ca:4e:3d:
                    4f:49:8d:12:ae:34:c1:e7:c8:c5:ed:a7:fc:78:6b:
                    05:c6:81:cd:47:62:4a:25:15:a6:0b:fd:44:38:05:
                    fb:51:f8:ed:53:69:ca:fe:ac:d2:7f:93:7c:08:96:
                    df:a0:52:f6:23:50:4a:20:13:98:be:12:65:3f:23:
                    26:59:2c:a2:82:65:c1:79:94:55:94:fd:e0:3f:f1:
                    83:eb:67:32:da:64:79:95:b3:5b:49:98:39:7a:73:
                    75:9b:79:05:30:4a:db:13:b3:bd:4d:ea:f3:af:d6:
                    e1:96:ae:84:39:fc:70:cc:38:d5:64:72:5a:59:0d:
                    7a:71:40:bf:fa:59:11:12:3b:83:09:4c:3a:97:10:
                    35:6b:a6:e8:47:86:c2:63:68:2c:49:0f:b6:22:26:
                    94:d1:cb
                Exponent: 65537 (0x10001)
        X509v3 extensions:
            X509v3 Basic Constraints: 
                CA:FALSE
            Netscape Comment: 
                OpenSSL Generated Certificate
            X509v3 Subject Key Identifier: 
                65:0B:CB:2E:8D:2B:53:4C:6A:C4:16:74:03:B9:A3:91:0A:B2:6A:9C
            X509v3 Authority Key Identifier: 
                keyid:BA:58:4D:C2:DA:51:33:79:0C:E4:5A:57:1D:FD:1D:B1:7C:49:C0:F6

    Signature Algorithm: sha256WithRSAEncryption
         06:30:f0:59:93:ae:c3:b5:e1:79:01:dc:c3:b7:66:15:49:8c:
         1c:44:83:07:cd:30:bd:16:8a:e8:41:97:59:03:63:2e:7d:9a:
         96:c8:81:ed:9b:74:cc:8b:98:71:11:a4:93:25:87:d4:d4:4d:
         77:4f:50:a4:a3:e9:7d:99:76:c7:98:40:bc:0a:fd:f0:2c:fe:
         c0:7a:f6:5b:11:3e:65:20:5c:4b:46:e1:d9:41:f1:c3:39:83:
         d4:c2:02:c8:f5:c6:7e:f3:bd:85:02:96:9e:d1:a7:b0:32:d5:
         17:55:42:fe:3a:65:a9:3c:14:3c:33:59:5f:fa:02:40:b8:90:
         f5:a4:39:cd:94:90:72:6e:24:1e:14:fb:40:3f:dc:14:9b:9d:
         37:43:5f:3e:7a:8b:17:28:f8:d3:6e:09:48:85:14:73:d6:38:
         39:2b:c7:02:5a:c2:ce:a9:a2:92:57:6b:9a:7a:c3:32:30:23:
         f7:3b:f6:cc:20:d9:2f:d9:04:36:87:be:2e:c6:7a:0c:17:ab:
         c8:d8:95:c0:8f:17:4f:64:36:4b:ac:20:1d:f4:c4:47:d7:43:
         1c:5e:33:2e:30:2c:75:59:a7:2b:0f:e6:6d:67:c9:d1:f0:38:
         83:a5:e7:b9:2e:d9:60:8a:ca:57:61:f9:75:cd:da:e1:dc:cb:
         d4:4e:76:c1:e3:3a:98:d9:fb:10:c7:29:ce:3a:85:7d:de:c2:
         48:27:9d:4f:a4:4a:a8:63:6e:98:f3:61:54:52:4b:eb:1e:26:
         75:bf:b8:66:89:fc:ba:85:b1:5f:c4:fb:1b:98:67:b7:3e:26:
         89:1d:04:07:f8:5b:b7:9d:67:17:75:23:07:0d:ba:99:ba:0c:
         c0:b4:8e:48:69:ce:48:d9:45:59:a6:9f:c0:96:69:94:2a:27:
         62:dc:7f:31:1a:48:7d:d8:5b:03:07:0b:b3:42:50:9f:3a:ef:
         dc:a1:10:67:30:5a:6e:2e:8e:fa:a0:a8:b6:0a:45:ff:c4:a0:
         39:aa:40:9d:0d:29:84:a5:44:69:43:86:9e:db:7c:dd:95:c7:
         4d:43:53:a1:d1:f7:55:6e:34:43:61:fd:8e:59:ed:28:b0:a3:
         da:13:e8:b7:68:57:31:ae:ae:79:a2:92:42:78:44:f6:ae:eb:
         fd:9c:89:37:e3:63:ef:16:cf:c0:9c:fc:14:aa:81:d1:c0:38:
         57:93:bf:00:ea:91:cf:0e:1e:a8:66:2d:4a:32:48:c2:60:39:
         53:94:b1:e2:e4:57:80:8d:b3:f4:07:43:28:25:6d:0c:4b:c9:
         90:2c:08:96:64:51:cf:b6:53:d2:8e:81:88:66:99:29:bd:12:
         1f:5b:5b:cb:87:18:57:5f
-----BEGIN CERTIFICATE-----
MIIFTTCCAzWgAwIBAgIFAIAIJi0wDQYJKoZIhvcNAQELBQAwJzElMCMGA1UEAwwc
U1JLMV9zaGEyNTZfNDA5Nl82NTUzN192M19jYTAgFw0yMzAzMTkwNzIyNDdaGA8y
MTIyMDIyMzA3MjI0N1owKjEoMCYGA1UEAwwfSU1HMV8xX3NoYTI1Nl80MDk2XzY1
NTM3X3YzX3VzcjCCAiIwDQYJKoZIhvcNAQEBBQADggIPADCCAgoCggIBAOxL0NQM
0oZ/GhmOjHzTPtwY4eyztucrI6yzxMHy1Th3DnxgNp4ciFVAmZD7WoNDr0oLksZT
wldKgfkWsMHQd2CliZHf4cr8ksg0NGnPgqOx07S8ZkBtAQNJR74LtZwYPYPAi52r
HVJ2vUCfVU6bqDuOqfRkgL3WOWjEjFRAFx1y0ourBjctGZsnbvSrjvyL8dxFcXb1
z5kLhcoVuXP3F+pcl5RDNYW8FKDqkng1EN0NjRbRBxT7SAEpkxXdXFl1NWLBWXWi
02aMB64ech0fg4MtGVDC7p47MMaHnuYnCTfwD1ZrkVzSURbF5gqu1+fHU1H9F2Ha
qwZdkib0jnyWIU8juRzMOYvZMPBbecQhFRsuz18HpDmM/jN7vpfkiek5XMca4A5Q
YNVgL8DHFwnaemsCn9zipzPYMdjTjcm+lAo7P9K9j/67zOQExQ+F9KUN44OUuvC6
zN2oW/66we2ntKZ5on58yk49T0mNEq40wefIxe2n/HhrBcaBzUdiSiUVpgv9RDgF
+1H47VNpyv6s0n+TfAiW36BS9iNQSiATmL4SZT8jJlksooJlwXmUVZT94D/xg+tn
MtpkeZWzW0mYOXpzdZt5BTBK2xOzvU3q86/W4ZauhDn8cMw41WRyWlkNenFAv/pZ
ERI7gwlMOpcQNWum6EeGwmNoLEkPtiImlNHLAgMBAAGjezB5MAkGA1UdEwQCMAAw
LAYJYIZIAYb4QgENBB8WHU9wZW5TU0wgR2VuZXJhdGVkIENlcnRpZmljYXRlMB0G
A1UdDgQWBBRlC8sujStTTGrEFnQDuaORCrJqnDAfBgNVHSMEGDAWgBS6WE3C2lEz
eQzkWlcd/R2xfEnA9jANBgkqhkiG9w0BAQsFAAOCAgEABjDwWZOuw7XheQHcw7dm
FUmMHESDB80wvRaK6EGXWQNjLn2alsiB7Zt0zIuYcRGkkyWH1NRNd09QpKPpfZl2
x5hAvAr98Cz+wHr2WxE+ZSBcS0bh2UHxwzmD1MICyPXGfvO9hQKWntGnsDLVF1VC
/jplqTwUPDNZX/oCQLiQ9aQ5zZSQcm4kHhT7QD/cFJudN0NfPnqLFyj4024JSIUU
c9Y4OSvHAlrCzqmikldrmnrDMjAj9zv2zCDZL9kENoe+LsZ6DBeryNiVwI8XT2Q2
S6wgHfTER9dDHF4zLjAsdVmnKw/mbWfJ0fA4g6XnuS7ZYIrKV2H5dc3a4dzL1E52
weM6mNn7EMcpzjqFfd7CSCedT6RKqGNumPNhVFJL6x4mdb+4Zon8uoWxX8T7G5hn
tz4miR0EB/hbt51nF3UjBw26mboMwLSOSGnOSNlFWaafwJZplConYtx/MRpIfdhb
AwcLs0JQnzrv3KEQZzBabi6O+qCotgpF/8SgOapAnQ0phKVEaUOGntt83ZXHTUNT
odH3VW40Q2H9jlntKLCj2hPot2hXMa6ueaKSQnhE9q7r/ZyJN+Nj7xbPwJz8FKqB
0cA4V5O/AOqRzw4eqGYtSjJIwmA5U5Sx4uRXgI2z9AdDKCVtDEvJkCwIlmRRz7ZT
0o6BiGaZKb0SH1tby4cYV18=
-----END CERTIFICATE-----
