Certificate:
    Data:
        Version: 3 (0x2)
        Serial Number: 2148017707 (0x8008262b)
        Signature Algorithm: sha256WithRSAEncryption
        Issuer: CN=CA1_sha256_4096_65537_v3_ca
        Validity
            Not Before: Mar 19 07:22:47 2023 GMT
            Not After : Feb 23 07:22:47 2122 GMT
        Subject: CN=SRK1_sha256_4096_65537_v3_ca
        Subject Public Key Info:
            Public Key Algorithm: rsaEncryption
                RSA Public-Key: (4096 bit)
                Modulus:
                    00:9c:c4:cc:6b:b9:49:28:b2:14:7c:6d:68:39:56:
                    49:ff:f6:8d:38:1e:f5:33:b4:9f:0a:9c:be:b3:da:
                    bb:d5:91:f0:3e:a0:da:14:cd:0c:8c:89:d6:ec:ef:
                    77:c2:09:24:af:64:26:e4:82:7e:f9:a0:35:2a:36:
                    08:bb:b1:45:3c:b7:f4:47:f3:37:8d:f5:5c:c5:a5:
                    7f:2e:ff:7c:43:42:67:50:6a:e2:c4:14:e4:2f:34:
                    c1:5d:95:3c:41:e6:dd:d4:6a:40:ab:89:d9:9f:4a:
                    a6:91:d4:fc:60:7a:a9:96:39:47:a3:c2:b2:4d:a8:
                    ad:04:0d:a0:c4:cf:ba:8a:7a:54:11:b2:ab:fd:93:
                    0b:2c:54:fe:30:bc:93:2d:3e:0f:e1:15:31:f9:f3:
                    e8:ce:bb:0f:14:6c:19:00:b4:70:38:55:ef:e3:3a:
                    f7:ae:30:c7:18:13:ea:ca:1a:60:1c:11:7f:7c:07:
                    b9:4a:e3:37:f2:ac:cc:e6:59:8d:99:9c:30:59:26:
                    fb:6d:f2:13:5c:90:90:f5:24:5c:28:b7:5d:28:d8:
                    8f:dd:12:dc:62:87:1d:b9:73:d2:9f:ff:26:8d:78:
                    ab:5b:0d:56:81:18:d6:97:45:07:57:78:05:01:ea:
                    2c:ef:a1:2c:23:ac:c9:9a:5b:52:a2:ea:10:bb:92:
                    14:c4:50:55:ff:f9:f2:6a:bf:79:7d:c9:60:17:b1:
                    aa:83:b1:dc:7c:3f:cf:a5:4d:0b:aa:fd:7e:8a:81:
                    bd:fa:71:d4:bb:27:4c:88:fa:ba:fb:74:8c:ba:c7:
                    f6:c2:d8:ea:ef:fa:f0:bc:9c:57:2d:c2:f7:0f:f0:
                    4e:52:76:e6:0a:62:5c:d0:f3:b0:08:32:23:9d:6c:
                    bd:07:2c:0b:bb:c0:50:72:a7:31:be:a2:1a:ba:93:
                    f1:3d:bb:df:2e:f3:f1:b1:6b:9e:c0:6a:55:62:bb:
                    5e:98:fb:62:fd:24:6d:22:60:f5:88:2a:01:19:17:
                    2f:7d:21:32:f6:dd:c8:79:3e:aa:4e:53:63:b0:1e:
                    71:69:34:a9:46:33:16:a8:d1:e6:b5:72:f4:ba:d1:
                    63:12:18:21:46:3c:21:8f:03:d5:de:fc:c8:76:c6:
                    0f:7f:c5:e4:4e:8b:3e:4b:85:69:82:bb:b6:40:65:
                    e3:66:39:d0:ed:6b:82:3b:8f:d0:39:3d:ac:13:e1:
                    3e:42:8c:56:cb:a3:92:07:fa:90:df:da:cb:73:da:
                    06:8f:3f:0e:79:57:61:64:d2:83:82:92:dc:2a:13:
                    0a:d7:7f:53:73:19:76:bf:f8:e6:0b:88:82:f6:9e:
                    27:01:ee:98:5e:a8:a8:f0:9b:62:5b:8d:80:04:16:
                    84:b1:25
                Exponent: 65537 (0x10001)
        X509v3 extensions:
            X509v3 Subject Key Identifier: 
                BA:58:4D:C2:DA:51:33:79:0C:E4:5A:57:1D:FD:1D:B1:7C:49:C0:F6
            X509v3 Authority Key Identifier: 
                keyid:3F:B2:FD:0B:44:F6:6A:82:7C:5A:58:24:1E:A7:13:19:44:AF:19:73
                DirName:/CN=CA1_sha256_4096_65537_v3_ca
                serial:02:68:3D:E1:3E:BC:2C:0F:A6:00:AB:37:6E:11:31:C0:56:73:7A:F2

            X509v3 Basic Constraints: critical
                CA:TRUE
            X509v3 Key Usage: 
                Certificate Sign
    Signature Algorithm: sha256WithRSAEncryption
         3e:87:76:b4:64:45:01:7d:64:9b:5c:75:cd:b1:2b:4f:03:2b:
         dd:62:41:ac:5e:b1:ce:3f:c7:95:71:81:4c:c0:60:d2:37:48:
         21:89:cc:9d:09:4e:49:08:3e:e0:d9:6a:30:b7:d4:4f:be:f0:
         af:c5:81:c6:75:d1:5b:82:06:dd:94:f6:f2:12:2e:5e:a7:38:
         39:0b:33:32:63:c6:0f:63:8d:52:77:ea:10:21:64:3d:e7:8d:
         03:d0:75:88:45:b3:33:07:a8:73:3b:88:ac:42:19:d3:7e:18:
         a1:ba:80:34:f6:57:45:cc:95:10:35:1b:9f:5e:71:fe:64:1c:
         96:50:29:3b:2b:b7:70:22:f5:da:55:f4:b5:7d:35:c2:7e:e6:
         82:17:c5:7d:cd:e0:45:3b:c7:84:ce:8f:55:c2:b7:c3:46:b0:
         dc:a1:4f:45:2f:4f:c9:2e:d3:28:8c:0e:cc:47:c7:af:8d:54:
         2d:ef:49:af:5d:92:35:2f:29:4e:4e:a6:2a:b9:1d:d4:fb:6f:
         29:7c:60:07:1a:4b:32:92:5c:08:fb:47:7e:2c:60:5f:ad:91:
         3a:bd:4f:b6:60:68:d8:9a:e9:1e:5b:d9:28:d7:a7:b3:a8:17:
         f4:3f:36:77:8c:2a:fc:a7:8b:c6:74:70:c1:9e:72:49:46:c2:
         3c:ea:e3:59:f1:5b:c8:0f:8d:8f:a4:58:a0:17:2a:23:1f:f8:
         bb:88:dc:cd:2c:46:10:e8:67:d8:84:c9:bd:47:18:90:c4:2d:
         1c:a6:34:f3:4f:ad:21:98:2a:fe:5e:b2:0d:f2:d4:c9:e5:6b:
         ea:97:e1:c9:3a:a3:35:fb:8b:b3:25:f7:86:3d:11:90:12:92:
         49:a7:64:90:7c:12:ee:5c:bc:a5:aa:e9:76:91:96:fe:53:0d:
         13:b8:c3:66:1e:00:aa:24:13:6e:93:1d:ab:ca:a4:61:aa:7d:
         ce:6e:70:a5:be:b9:65:54:7e:1c:51:94:79:19:cf:5d:bd:3e:
         f8:43:0d:aa:2d:62:f1:98:91:66:b8:40:42:2f:07:51:8b:04:
         6a:ca:84:d6:68:58:2c:85:74:70:1b:dd:df:4c:41:1b:26:ae:
         ef:fe:62:ad:60:c3:a1:4f:ae:7e:d1:c5:50:d0:01:ee:b6:4f:
         7a:8d:a2:e4:34:f5:55:c9:08:b0:bd:13:c0:3d:d7:f6:0f:9a:
         dd:cc:a5:ca:0b:b5:bb:59:4a:78:b2:3c:bb:db:e8:c5:a5:b0:
         86:bb:d0:7c:5e:38:13:59:e9:30:7b:55:89:f3:cb:ea:dd:d1:
         a1:3b:3f:09:b6:71:70:f4:2e:61:48:60:14:69:d2:bd:e9:df:
         72:13:5a:ec:fb:44:82:f7
-----BEGIN CERTIFICATE-----
MIIFcjCCA1qgAwIBAgIFAIAIJiswDQYJKoZIhvcNAQELBQAwJjEkMCIGA1UEAxQb
Q0ExX3NoYTI1Nl80MDk2XzY1NTM3X3YzX2NhMCAXDTIzMDMxOTA3MjI0N1oYDzIx
MjIwMjIzMDcyMjQ3WjAnMSUwIwYDVQQDDBxTUksxX3NoYTI1Nl80MDk2XzY1NTM3
X3YzX2NhMIICIjANBgkqhkiG9w0BAQEFAAOCAg8AMIICCgKCAgEAnMTMa7lJKLIU
fG1oOVZJ//aNOB71M7SfCpy+s9q71ZHwPqDaFM0MjInW7O93wgkkr2Qm5IJ++aA1
KjYIu7FFPLf0R/M3jfVcxaV/Lv98Q0JnUGrixBTkLzTBXZU8Qebd1GpAq4nZn0qm
kdT8YHqpljlHo8KyTaitBA2gxM+6inpUEbKr/ZMLLFT+MLyTLT4P4RUx+fPozrsP
FGwZALRwOFXv4zr3rjDHGBPqyhpgHBF/fAe5SuM38qzM5lmNmZwwWSb7bfITXJCQ
9SRcKLddKNiP3RLcYocduXPSn/8mjXirWw1WgRjWl0UHV3gFAeos76EsI6zJmltS
ouoQu5IUxFBV//nyar95fclgF7Gqg7HcfD/PpU0Lqv1+ioG9+nHUuydMiPq6+3SM
usf2wtjq7/rwvJxXLcL3D/BOUnbmCmJc0POwCDIjnWy9BywLu8BQcqcxvqIaupPx
PbvfLvPxsWuewGpVYrtemPti/SRtImD1iCoBGRcvfSEy9t3IeT6qTlNjsB5xaTSp
RjMWqNHmtXL0utFjEhghRjwhjwPV3vzIdsYPf8XkTos+S4Vpgru2QGXjZjnQ7WuC
O4/QOT2sE+E+QoxWy6OSB/qQ39rLc9oGjz8OeVdhZNKDgpLcKhMK139Tcxl2v/jm
C4iC9p4nAe6YXqio8JtiW42ABBaEsSUCAwEAAaOBozCBoDAdBgNVHQ4EFgQUulhN
wtpRM3kM5FpXHf0dsXxJwPYwYQYDVR0jBFowWIAUP7L9C0T2aoJ8WlgkHqcTGUSv
GXOhKqQoMCYxJDAiBgNVBAMUG0NBMV9zaGEyNTZfNDA5Nl82NTUzN192M19jYYIU
Amg94T68LA+mAKs3bhExwFZzevIwDwYDVR0TAQH/BAUwAwEB/zALBgNVHQ8EBAMC
AgQwDQYJKoZIhvcNAQELBQADggIBAD6HdrRkRQF9ZJtcdc2xK08DK91iQaxesc4/
x5VxgUzAYNI3SCGJzJ0JTkkIPuDZajC31E++8K/FgcZ10VuCBt2U9vISLl6nODkL
MzJjxg9jjVJ36hAhZD3njQPQdYhFszMHqHM7iKxCGdN+GKG6gDT2V0XMlRA1G59e
cf5kHJZQKTsrt3Ai9dpV9LV9NcJ+5oIXxX3N4EU7x4TOj1XCt8NGsNyhT0UvT8ku
0yiMDsxHx6+NVC3vSa9dkjUvKU5Opiq5HdT7byl8YAcaSzKSXAj7R34sYF+tkTq9
T7ZgaNia6R5b2SjXp7OoF/Q/NneMKvyni8Z0cMGecklGwjzq41nxW8gPjY+kWKAX
KiMf+LuI3M0sRhDoZ9iEyb1HGJDELRymNPNPrSGYKv5esg3y1Mnla+qX4ck6ozX7
i7Ml94Y9EZASkkmnZJB8Eu5cvKWq6XaRlv5TDRO4w2YeAKokE26THavKpGGqfc5u
cKW+uWVUfhxRlHkZz129PvhDDaotYvGYkWa4QEIvB1GLBGrKhNZoWCyFdHAb3d9M
QRsmru/+Yq1gw6FPrn7RxVDQAe62T3qNouQ09VXJCLC9E8A91/YPmt3MpcoLtbtZ
SniyPLvb6MWlsIa70HxeOBNZ6TB7VYnzy+rd0aE7Pwm2cXD0LmFIYBRp0r3p33IT
Wuz7RIL3
-----END CERTIFICATE-----
