Certificate:
    Data:
        Version: 3 (0x2)
        Serial Number: 2148017711 (0x8008262f)
        Signature Algorithm: sha256WithRSAEncryption
        Issuer: CN=SRK2_sha256_4096_65537_v3_ca
        Validity
            Not Before: Mar 19 07:22:48 2023 GMT
            Not After : Feb 23 07:22:48 2122 GMT
        Subject: CN=CSF2_1_sha256_4096_65537_v3_usr
        Subject Public Key Info:
            Public Key Algorithm: rsaEncryption
                RSA Public-Key: (4096 bit)
                Modulus:
                    00:c1:1d:22:cf:33:e7:6a:c6:fd:6e:96:d3:fd:d9:
                    06:d6:de:de:97:fe:7f:19:b7:11:95:fc:0b:7c:77:
                    17:25:04:81:89:c3:a2:04:1f:df:97:bb:ee:24:ed:
                    ff:df:e6:5f:a3:3c:5e:40:b3:fa:29:8e:06:5f:2e:
                    84:70:94:08:52:1c:00:e6:16:e6:e9:15:1e:d5:e4:
                    34:fe:9e:be:d9:a4:43:37:c9:53:90:46:f6:cf:05:
                    fc:c8:cd:1a:3f:f2:39:8b:47:e7:65:bf:3b:2b:57:
                    e4:4c:cf:64:a5:6a:c0:60:78:d8:5e:64:19:75:e3:
                    c0:f5:bc:59:6c:41:71:92:d5:ff:71:dd:ea:c9:76:
                    d1:4b:5e:20:98:21:e8:46:2d:c6:63:74:92:10:19:
                    53:a2:04:ab:d3:b6:dd:f6:67:34:9b:53:b2:97:1a:
                    76:4d:d1:4a:ae:e1:3a:e8:be:40:f8:82:4a:da:7f:
                    6c:49:f1:6b:71:40:e2:92:5d:55:9a:b9:66:3a:0a:
                    71:36:3f:d6:bf:9c:70:8d:99:11:a2:43:f4:a1:b5:
                    69:74:09:1d:0b:59:54:c2:ea:f7:0b:70:97:c9:c3:
                    fa:ed:e6:1f:f0:b3:2c:49:4d:48:d0:f3:d4:61:bd:
                    2f:86:58:2e:f3:8f:17:68:d7:32:2c:02:b5:b6:14:
                    04:f3:78:d8:b1:49:88:8a:da:97:a1:16:7c:dc:57:
                    b1:23:e3:d1:1a:dc:85:f3:62:73:9e:4c:10:ad:29:
                    26:8f:57:54:a3:6c:f8:6e:e9:f8:73:4f:58:5a:0c:
                    68:38:05:fa:ab:39:4a:92:63:55:dd:bb:44:19:72:
                    8c:f3:fd:64:f1:a6:67:bc:58:c1:76:a8:e5:39:96:
                    e5:40:43:cd:d8:34:dc:a8:d0:7d:bd:5f:d6:44:e6:
                    08:1b:3f:c7:56:77:78:45:40:36:32:a9:9e:51:db:
                    20:eb:6a:18:3f:3d:eb:3a:48:6c:b8:ea:a2:b6:30:
                    c7:ba:0e:c9:e2:5e:29:85:59:32:5f:82:c0:fc:24:
                    13:e4:1a:29:11:4a:0c:03:43:cb:9d:f6:2c:66:4b:
                    68:9c:04:36:aa:5b:aa:2a:61:b5:c5:79:55:e6:2c:
                    80:8e:b7:ed:74:d6:a9:89:c2:e1:9e:9d:9d:b2:52:
                    74:54:37:26:9e:af:26:ad:ef:f7:16:75:78:2f:b0:
                    93:96:e1:5c:7b:83:27:68:60:c9:91:04:8d:c3:07:
                    34:72:b6:a8:fd:b8:58:05:28:20:64:65:cc:2b:36:
                    de:23:f2:d8:d5:ed:36:c0:1e:2b:fe:45:93:eb:73:
                    b3:74:56:44:b4:b8:9a:53:49:24:69:a3:b3:ea:a8:
                    f8:cc:0d
                Exponent: 65537 (0x10001)
        X509v3 extensions:
            X509v3 Basic Constraints: 
                CA:FALSE
            Netscape Comment: 
                OpenSSL Generated Certificate
            X509v3 Subject Key Identifier: 
                79:E3:FF:B6:1D:72:A4:B2:0F:F7:CD:FF:77:5E:38:64:DC:4A:07:A2
            X509v3 Authority Key Identifier: 
                keyid:46:05:28:10:38:E3:9D:66:19:07:46:8D:41:55:28:61:23:49:52:1C

    Signature Algorithm: sha256WithRSAEncryption
         24:86:bc:8e:55:39:5b:ca:65:91:2b:fb:2f:8b:5f:f7:90:3c:
         88:7a:a2:69:7f:09:46:42:a9:51:67:7b:84:54:e9:89:f6:c2:
         5a:8b:af:1b:77:37:d2:48:ec:d9:6d:2b:02:6a:7d:3b:a2:22:
         41:3f:f0:29:d0:af:c7:cf:a6:5c:9d:a3:90:85:cb:1f:e2:0b:
         1b:3e:ad:38:18:09:18:ef:72:7d:ef:9a:fc:e6:19:fb:e5:9e:
         1e:79:8b:c0:a2:b0:61:d7:e7:ff:86:3c:9a:80:70:10:1c:5a:
         1b:56:6f:fa:df:89:15:2d:7d:76:b9:34:86:2d:44:85:25:f1:
         8e:48:1c:df:7f:4b:d6:92:1e:fa:e4:a0:75:3c:eb:52:e2:46:
         c7:32:fe:fa:66:fc:bd:a2:c9:92:ba:f4:3a:6b:72:4b:c5:e5:
         ad:47:15:37:37:16:eb:7f:e8:24:1f:a7:46:00:e8:89:7a:23:
         8e:73:4a:a0:37:f6:87:90:ef:d7:2b:8b:80:70:0e:c4:cf:8a:
         82:c4:a5:e4:0b:e3:e1:9f:e0:9c:6e:39:44:a0:63:8b:50:12:
         cc:07:82:3b:95:b3:f2:6e:2a:22:45:e1:7a:36:a2:e7:65:a7:
         82:13:e6:52:7b:5c:33:b0:ca:05:a9:b8:e8:80:10:3b:96:56:
         37:e0:e3:26:fb:69:0a:82:41:b4:ed:bc:02:47:97:02:5f:ab:
         79:bb:5f:48:e1:7e:6e:a8:79:72:c3:35:9a:0e:e8:20:d2:2e:
         96:79:4c:25:c8:f4:78:92:47:5c:72:65:c6:fe:15:c2:32:27:
         b4:aa:e9:3a:3b:ea:eb:f0:a3:f0:ba:08:95:39:1c:ab:1b:86:
         b0:58:6d:78:c6:50:0c:f7:72:0d:8f:f1:e3:b7:4c:68:89:db:
         ea:22:f3:46:69:e3:fe:78:ba:0c:3c:65:e4:99:08:da:88:a6:
         c8:85:c4:8d:b5:a8:d5:58:57:4f:48:6a:aa:40:0d:60:11:59:
         9a:2a:ca:55:3d:a3:3d:6c:24:74:35:f8:73:b6:43:d3:1d:5f:
         ca:41:0a:8f:f8:7e:ca:0a:db:37:a7:e9:fd:b7:9b:cd:36:d3:
         30:62:e6:9c:aa:16:ea:03:3a:d1:26:37:95:33:46:26:4d:2d:
         93:1c:ca:d1:67:9b:7b:37:fb:1c:c8:dd:c5:a0:d6:47:72:d7:
         df:c1:65:c4:88:18:97:f0:df:db:2a:21:65:48:b8:54:49:1e:
         a1:99:86:d7:2f:0c:b7:d3:8c:d8:11:3d:44:f0:5d:d1:94:ff:
         15:7d:23:a1:17:c9:e9:bf:10:4c:b2:36:a5:e1:b2:cf:85:cf:
         56:af:ee:8e:ca:cb:fd:e1
-----BEGIN CERTIFICATE-----
MIIFTTCCAzWgAwIBAgIFAIAIJi8wDQYJKoZIhvcNAQELBQAwJzElMCMGA1UEAwwc
U1JLMl9zaGEyNTZfNDA5Nl82NTUzN192M19jYTAgFw0yMzAzMTkwNzIyNDhaGA8y
MTIyMDIyMzA3MjI0OFowKjEoMCYGA1UEAwwfQ1NGMl8xX3NoYTI1Nl80MDk2XzY1
NTM3X3YzX3VzcjCCAiIwDQYJKoZIhvcNAQEBBQADggIPADCCAgoCggIBAMEdIs8z
52rG/W6W0/3ZBtbe3pf+fxm3EZX8C3x3FyUEgYnDogQf35e77iTt/9/mX6M8XkCz
+imOBl8uhHCUCFIcAOYW5ukVHtXkNP6evtmkQzfJU5BG9s8F/MjNGj/yOYtH52W/
OytX5EzPZKVqwGB42F5kGXXjwPW8WWxBcZLV/3Hd6sl20UteIJgh6EYtxmN0khAZ
U6IEq9O23fZnNJtTspcadk3RSq7hOui+QPiCStp/bEnxa3FA4pJdVZq5ZjoKcTY/
1r+ccI2ZEaJD9KG1aXQJHQtZVMLq9wtwl8nD+u3mH/CzLElNSNDz1GG9L4ZYLvOP
F2jXMiwCtbYUBPN42LFJiIral6EWfNxXsSPj0RrchfNic55MEK0pJo9XVKNs+G7p
+HNPWFoMaDgF+qs5SpJjVd27RBlyjPP9ZPGmZ7xYwXao5TmW5UBDzdg03KjQfb1f
1kTmCBs/x1Z3eEVANjKpnlHbIOtqGD896zpIbLjqorYwx7oOyeJeKYVZMl+CwPwk
E+QaKRFKDANDy532LGZLaJwENqpbqiphtcV5VeYsgI637XTWqYnC4Z6dnbJSdFQ3
Jp6vJq3v9xZ1eC+wk5bhXHuDJ2hgyZEEjcMHNHK2qP24WAUoIGRlzCs23iPy2NXt
NsAeK/5Fk+tzs3RWRLS4mlNJJGmjs+qo+MwNAgMBAAGjezB5MAkGA1UdEwQCMAAw
LAYJYIZIAYb4QgENBB8WHU9wZW5TU0wgR2VuZXJhdGVkIENlcnRpZmljYXRlMB0G
A1UdDgQWBBR54/+2HXKksg/3zf93Xjhk3EoHojAfBgNVHSMEGDAWgBRGBSgQOOOd
ZhkHRo1BVShhI0lSHDANBgkqhkiG9w0BAQsFAAOCAgEAJIa8jlU5W8plkSv7L4tf
95A8iHqiaX8JRkKpUWd7hFTpifbCWouvG3c30kjs2W0rAmp9O6IiQT/wKdCvx8+m
XJ2jkIXLH+ILGz6tOBgJGO9yfe+a/OYZ++WeHnmLwKKwYdfn/4Y8moBwEBxaG1Zv
+t+JFS19drk0hi1EhSXxjkgc339L1pIe+uSgdTzrUuJGxzL++mb8vaLJkrr0Omty
S8XlrUcVNzcW63/oJB+nRgDoiXojjnNKoDf2h5Dv1yuLgHAOxM+KgsSl5Avj4Z/g
nG45RKBji1ASzAeCO5Wz8m4qIkXhejai52WnghPmUntcM7DKBam46IAQO5ZWN+Dj
JvtpCoJBtO28AkeXAl+rebtfSOF+bqh5csM1mg7oINIulnlMJcj0eJJHXHJlxv4V
wjIntKrpOjvq6/Cj8LoIlTkcqxuGsFhteMZQDPdyDY/x47dMaInb6iLzRmnj/ni6
DDxl5JkI2oimyIXEjbWo1VhXT0hqqkANYBFZmirKVT2jPWwkdDX4c7ZD0x1fykEK
j/h+ygrbN6fp/bebzTbTMGLmnKoW6gM60SY3lTNGJk0tkxzK0Webezf7HMjdxaDW
R3LX38FlxIgYl/Df2yohZUi4VEkeoZmG1y8Mt9OM2BE9RPBd0ZT/FX0joRfJ6b8Q
TLI2peGyz4XPVq/ujsrL/eE=
-----END CERTIFICATE-----
