Certificate:
    Data:
        Version: 3 (0x2)
        Serial Number: 2148017710 (0x8008262e)
        Signature Algorithm: sha256WithRSAEncryption
        Issuer: CN=CA1_sha256_4096_65537_v3_ca
        Validity
            Not Before: Mar 19 07:22:48 2023 GMT
            Not After : Feb 23 07:22:48 2122 GMT
        Subject: CN=SRK2_sha256_4096_65537_v3_ca
        Subject Public Key Info:
            Public Key Algorithm: rsaEncryption
                RSA Public-Key: (4096 bit)
                Modulus:
                    00:b3:8f:3e:ef:b1:94:9f:da:cf:fe:4a:0b:ba:26:
                    cf:00:55:0b:a0:e7:64:fc:6f:05:e2:92:fc:10:02:
                    52:c2:b5:94:de:da:db:8b:ca:42:cf:cb:94:17:f2:
                    b1:9f:3b:fe:a4:b9:7f:9a:6e:7e:2e:31:dc:b9:72:
                    d4:f8:ef:a0:e0:fc:66:01:a9:46:88:f9:b6:d4:37:
                    3e:0f:cd:9d:a7:53:2e:b1:0f:0e:7d:9e:d2:05:c4:
                    8a:2a:b3:e2:64:c0:84:77:78:62:73:c5:41:e1:9f:
                    87:0e:62:88:be:53:66:57:fb:22:5f:cc:a1:55:4d:
                    56:72:d3:c9:e9:31:94:d5:15:fd:64:77:28:f0:c3:
                    59:e1:82:41:97:f1:e6:a5:00:c9:b1:45:65:57:33:
                    53:1e:39:83:e6:1a:b5:b6:73:db:8d:ba:7b:82:ba:
                    d8:39:ca:76:d4:92:7e:7b:da:31:89:b8:0b:7b:b6:
                    c2:f5:89:a1:bc:19:fb:0f:3f:e2:1f:03:14:74:97:
                    be:c1:10:2c:36:36:89:49:c8:d6:cd:ca:fb:48:6b:
                    5f:5c:7d:e4:9c:4b:07:a8:89:92:c8:dc:71:d5:8d:
                    86:39:46:1b:b9:0f:ae:99:d8:18:2d:d1:ba:ca:5f:
                    ac:7f:e6:b9:5a:87:ce:e4:fa:29:4e:c7:b9:4d:ac:
                    76:e2:72:77:8c:8e:a9:1d:e5:52:07:a6:94:ec:fb:
                    af:0d:13:39:88:60:c4:f6:a6:b9:fe:55:2a:7b:8e:
                    f2:d1:18:6c:de:e0:1d:3f:be:98:07:2e:d7:3e:27:
                    88:f1:3f:48:13:08:90:f9:8f:a9:3e:74:08:ea:ff:
                    75:e1:58:a5:88:4c:15:ef:ea:01:ba:e7:5e:06:af:
                    23:ca:dd:b9:72:76:8a:96:c1:32:d2:58:14:39:66:
                    5a:34:a0:b0:88:62:94:a3:61:a2:64:74:84:9c:ab:
                    21:c0:33:13:2a:8c:dd:ae:b5:2c:ab:83:c5:6c:ac:
                    20:2d:e5:cb:14:0e:fd:55:88:59:0d:9c:59:b8:b9:
                    bf:58:a3:7a:1f:b2:b5:59:a6:94:46:7a:8a:cc:86:
                    89:86:c1:d3:93:fc:55:b8:ad:08:24:be:98:d2:bf:
                    5b:2d:d7:50:9b:c4:d7:90:d3:ea:b3:1c:fc:4f:6d:
                    68:62:6a:61:1b:97:62:c6:13:b1:41:a4:a2:0d:0c:
                    bc:ae:d3:bc:8d:8f:da:be:e2:b2:18:86:14:dc:d4:
                    7a:64:52:e0:b9:bd:c6:eb:f1:1a:93:50:1d:37:e3:
                    a8:f8:43:05:4c:c8:fd:47:98:d8:48:f4:e6:86:01:
                    ad:62:40:c0:14:42:b6:5b:16:bf:22:1f:69:27:69:
                    81:62:a3
                Exponent: 65537 (0x10001)
        X509v3 extensions:
            X509v3 Subject Key Identifier: 
                46:05:28:10:38:E3:9D:66:19:07:46:8D:41:55:28:61:23:49:52:1C
            X509v3 Authority Key Identifier: 
                keyid:3F:B2:FD:0B:44:F6:6A:82:7C:5A:58:24:1E:A7:13:19:44:AF:19:73
                DirName:/CN=CA1_sha256_4096_65537_v3_ca
                serial:02:68:3D:E1:3E:BC:2C:0F:A6:00:AB:37:6E:11:31:C0:56:73:7A:F2

            X509v3 Basic Constraints: critical
                CA:TRUE
            X509v3 Key Usage: 
                Certificate Sign
    Signature Algorithm: sha256WithRSAEncryption
         16:c0:c5:fc:94:ae:3e:80:af:cf:fc:4b:19:54:35:ff:ad:22:
         71:bf:fd:5d:2e:77:95:ba:2e:64:26:01:a8:7e:89:42:d2:4b:
         f8:a5:fc:66:e6:c8:57:26:91:25:3c:8a:7a:33:2e:c1:6c:ff:
         c5:e0:7d:c2:4b:de:83:de:5a:c9:5c:0e:f5:53:d8:4c:5f:6a:
         41:e0:4a:8a:30:b7:80:71:93:8a:17:ca:ce:d8:67:60:ce:84:
         1d:e2:eb:d0:37:d4:3e:c1:f8:34:dc:89:6f:de:9d:8f:80:59:
         7d:53:21:e9:72:7e:45:73:ee:57:ef:aa:29:bd:2f:dd:bc:c9:
         61:c7:8b:c2:f3:7c:ba:9a:11:da:4c:12:71:c8:8d:d6:61:8f:
         4b:0b:b9:e3:7e:79:e0:89:8d:2b:24:b6:49:ff:35:43:df:8b:
         65:4a:68:62:a2:6d:91:f5:54:4c:af:4a:1c:fc:7a:1f:7e:ac:
         2a:9b:7d:dd:0e:95:c5:89:f1:a8:4f:f4:0b:7b:db:69:25:db:
         b0:b2:69:94:1e:bb:6f:6d:12:0f:f4:74:e0:14:aa:88:90:2b:
         14:a9:13:bf:e6:e4:da:93:53:17:ff:b6:9e:87:d4:eb:59:4d:
         d4:7f:a1:e7:50:22:1f:fd:9f:98:0e:ec:51:aa:06:70:45:95:
         e8:7b:93:05:c2:a7:94:71:89:c4:6b:77:aa:6b:0a:b9:91:7e:
         e4:33:4e:34:c0:bf:af:4c:6a:ec:dc:c6:0c:af:fe:bb:3a:3a:
         6f:b3:e8:93:e2:52:ef:73:cd:15:23:b0:d0:42:81:ca:6c:9b:
         7a:cb:9c:ec:c6:11:a1:4f:56:ee:73:87:97:8f:6d:30:f1:b6:
         99:5c:96:b6:e8:30:93:07:77:4d:63:60:ae:5f:ab:7b:04:1b:
         8a:68:b3:8e:b2:28:fa:58:9b:eb:ee:9d:68:b6:a9:fd:39:c6:
         28:a0:2f:ec:63:14:1c:4c:10:93:82:0a:8c:62:03:af:36:61:
         db:87:40:24:95:d2:cb:67:cb:8b:ce:e6:cf:0f:d4:d9:ca:78:
         81:89:fe:49:ac:68:dd:8c:35:ea:76:02:55:c1:5e:5a:d7:32:
         61:70:8c:62:f7:af:89:d0:84:8c:3a:1a:6b:4c:39:16:c5:5d:
         b7:21:77:e7:15:16:93:52:6f:8d:70:6c:d4:e9:b2:21:71:57:
         13:de:b8:3b:e0:e8:c7:91:68:7a:54:11:73:8a:36:95:0e:c6:
         fc:0c:9b:2a:61:87:fa:8a:38:50:31:c3:65:02:4d:19:d5:41:
         dc:85:a6:40:4a:3c:6a:29:9e:33:b1:e3:bb:6e:ee:bb:47:04:
         f7:6f:41:f6:37:4c:f9:fe
-----BEGIN CERTIFICATE-----
MIIFcjCCA1qgAwIBAgIFAIAIJi4wDQYJKoZIhvcNAQELBQAwJjEkMCIGA1UEAxQb
Q0ExX3NoYTI1Nl80MDk2XzY1NTM3X3YzX2NhMCAXDTIzMDMxOTA3MjI0OFoYDzIx
MjIwMjIzMDcyMjQ4WjAnMSUwIwYDVQQDDBxTUksyX3NoYTI1Nl80MDk2XzY1NTM3
X3YzX2NhMIICIjANBgkqhkiG9w0BAQEFAAOCAg8AMIICCgKCAgEAs48+77GUn9rP
/koLuibPAFULoOdk/G8F4pL8EAJSwrWU3trbi8pCz8uUF/Kxnzv+pLl/mm5+LjHc
uXLU+O+g4PxmAalGiPm21Dc+D82dp1MusQ8OfZ7SBcSKKrPiZMCEd3hic8VB4Z+H
DmKIvlNmV/siX8yhVU1WctPJ6TGU1RX9ZHco8MNZ4YJBl/HmpQDJsUVlVzNTHjmD
5hq1tnPbjbp7grrYOcp21JJ+e9oxibgLe7bC9YmhvBn7Dz/iHwMUdJe+wRAsNjaJ
ScjWzcr7SGtfXH3knEsHqImSyNxx1Y2GOUYbuQ+umdgYLdG6yl+sf+a5WofO5Pop
Tse5Tax24nJ3jI6pHeVSB6aU7PuvDRM5iGDE9qa5/lUqe47y0Rhs3uAdP76YBy7X
PieI8T9IEwiQ+Y+pPnQI6v914ViliEwV7+oBuudeBq8jyt25cnaKlsEy0lgUOWZa
NKCwiGKUo2GiZHSEnKshwDMTKozdrrUsq4PFbKwgLeXLFA79VYhZDZxZuLm/WKN6
H7K1WaaURnqKzIaJhsHTk/xVuK0IJL6Y0r9bLddQm8TXkNPqsxz8T21oYmphG5di
xhOxQaSiDQy8rtO8jY/avuKyGIYU3NR6ZFLgub3G6/Eak1AdN+Oo+EMFTMj9R5jY
SPTmhgGtYkDAFEK2Wxa/Ih9pJ2mBYqMCAwEAAaOBozCBoDAdBgNVHQ4EFgQURgUo
EDjjnWYZB0aNQVUoYSNJUhwwYQYDVR0jBFowWIAUP7L9C0T2aoJ8WlgkHqcTGUSv
GXOhKqQoMCYxJDAiBgNVBAMUG0NBMV9zaGEyNTZfNDA5Nl82NTUzN192M19jYYIU
Amg94T68LA+mAKs3bhExwFZzevIwDwYDVR0TAQH/BAUwAwEB/zALBgNVHQ8EBAMC
AgQwDQYJKoZIhvcNAQELBQADggIBABbAxfyUrj6Ar8/8SxlUNf+tInG//V0ud5W6
LmQmAah+iULSS/il/GbmyFcmkSU8inozLsFs/8XgfcJL3oPeWslcDvVT2ExfakHg
Soowt4Bxk4oXys7YZ2DOhB3i69A31D7B+DTciW/enY+AWX1TIelyfkVz7lfvqim9
L928yWHHi8LzfLqaEdpMEnHIjdZhj0sLueN+eeCJjSsktkn/NUPfi2VKaGKibZH1
VEyvShz8eh9+rCqbfd0OlcWJ8ahP9At722kl27CyaZQeu29tEg/0dOAUqoiQKxSp
E7/m5NqTUxf/tp6H1OtZTdR/oedQIh/9n5gO7FGqBnBFleh7kwXCp5RxicRrd6pr
CrmRfuQzTjTAv69Mauzcxgyv/rs6Om+z6JPiUu9zzRUjsNBCgcpsm3rLnOzGEaFP
Vu5zh5ePbTDxtplclrboMJMHd01jYK5fq3sEG4pos46yKPpYm+vunWi2qf05xiig
L+xjFBxMEJOCCoxiA682YduHQCSV0stny4vO5s8P1NnKeIGJ/kmsaN2MNep2AlXB
XlrXMmFwjGL3r4nQhIw6GmtMORbFXbchd+cVFpNSb41wbNTpsiFxVxPeuDvg6MeR
aHpUEXOKNpUOxvwMmyphh/qKOFAxw2UCTRnVQdyFpkBKPGopnjOx47tu7rtHBPdv
QfY3TPn+
-----END CERTIFICATE-----
