Certificate:
    Data:
        Version: 3 (0x2)
        Serial Number: 2148017713 (0x80082631)
        Signature Algorithm: sha256WithRSAEncryption
        Issuer: CN=CA1_sha256_4096_65537_v3_ca
        Validity
            Not Before: Mar 19 07:22:49 2023 GMT
            Not After : Feb 23 07:22:49 2122 GMT
        Subject: CN=SRK3_sha256_4096_65537_v3_ca
        Subject Public Key Info:
            Public Key Algorithm: rsaEncryption
                RSA Public-Key: (4096 bit)
                Modulus:
                    00:d2:2e:b6:6f:e0:c7:4d:d6:af:34:e6:05:e6:d8:
                    18:3a:85:55:95:b2:e8:eb:51:81:05:fe:25:c2:c4:
                    8a:6e:dc:b0:f5:49:b7:7b:9e:f0:33:8b:f0:94:1f:
                    40:7d:ce:e2:a9:ec:55:11:47:e4:8b:d3:8e:a9:2c:
                    4a:7e:75:22:2d:b0:49:a8:b4:43:d7:f3:9a:fd:a9:
                    9a:5d:c6:a5:0f:32:27:29:8d:12:1d:cf:ce:a2:b1:
                    72:ba:ce:b9:69:56:fb:07:0c:19:f5:66:ad:82:14:
                    91:79:fe:63:ba:8a:07:fe:70:b6:0f:d4:b4:da:d5:
                    0c:e2:99:9e:fd:d0:66:cd:55:ed:47:99:d1:8b:17:
                    61:73:ec:07:7a:98:00:51:c8:f6:8a:5f:b4:5b:01:
                    93:b7:1c:a8:05:5b:f7:ad:cb:78:6b:59:2b:fb:bc:
                    b8:16:8e:49:17:94:68:50:3f:81:44:65:21:6f:da:
                    d2:ac:41:7f:03:67:ed:6d:96:c1:0d:f7:72:ce:45:
                    1a:f7:52:38:84:84:86:b9:44:7d:04:91:9d:e9:cb:
                    c0:cd:8f:1e:1e:5f:a8:db:28:b9:ab:4c:cc:1c:4d:
                    7d:66:be:7e:b5:bb:c4:a8:c4:0f:1f:f2:20:cb:56:
                    2b:ac:ca:5e:fb:3b:a9:e1:d1:14:05:b2:b0:95:76:
                    aa:c2:cf:5d:fa:b4:07:b1:ad:bb:cb:53:e9:22:dd:
                    6a:53:9a:bf:ce:1d:d6:58:ba:7e:f7:8b:57:40:c2:
                    f9:32:43:43:48:ba:02:54:77:94:1f:33:b4:25:94:
                    32:86:24:4c:32:2a:b7:50:46:64:de:16:c5:18:da:
                    70:f0:3b:4e:9e:d0:13:70:47:48:e0:96:73:f9:bf:
                    44:04:bd:91:fc:0e:98:54:da:08:56:41:3e:a9:1f:
                    c1:5a:90:23:9f:0e:8c:96:b5:bf:82:06:c5:ad:5c:
                    c8:ae:f5:62:f2:b4:55:f8:f7:fc:8d:1e:ec:11:d4:
                    80:e4:07:a0:cd:e8:33:a0:51:51:08:b1:1a:2e:c0:
                    53:09:f5:8d:01:61:4b:06:93:a7:c8:8a:7d:6e:19:
                    53:64:d3:e1:db:9f:7e:eb:6e:df:1d:a4:80:86:98:
                    80:12:81:21:ed:de:ae:7f:08:08:3e:f8:b0:f3:ff:
                    4d:95:6b:51:cc:71:ad:bb:83:b6:d3:57:f1:89:e0:
                    88:7f:18:8e:c6:ad:99:46:d5:8b:06:dd:de:5c:b2:
                    de:eb:84:dc:84:76:66:ca:d1:f8:35:da:b5:90:f7:
                    29:80:4f:f7:38:52:d0:95:72:f2:e2:66:10:f3:ee:
                    cb:73:45:32:64:07:3a:44:0c:59:a9:0a:67:f7:5d:
                    c7:55:23
                Exponent: 65537 (0x10001)
        X509v3 extensions:
            X509v3 Subject Key Identifier: 
                FD:15:D8:A1:09:A0:2D:5B:94:2A:E6:EC:28:FC:56:B0:BF:91:5F:23
            X509v3 Authority Key Identifier: 
                keyid:3F:B2:FD:0B:44:F6:6A:82:7C:5A:58:24:1E:A7:13:19:44:AF:19:73
                DirName:/CN=CA1_sha256_4096_65537_v3_ca
                serial:02:68:3D:E1:3E:BC:2C:0F:A6:00:AB:37:6E:11:31:C0:56:73:7A:F2

            X509v3 Basic Constraints: critical
                CA:TRUE
            X509v3 Key Usage: 
                Certificate Sign
    Signature Algorithm: sha256WithRSAEncryption
         42:3b:a5:bb:24:44:ca:42:a2:ad:fb:1f:6b:e3:85:67:9e:79:
         bf:cd:cf:98:95:16:97:e1:66:b9:8d:fe:65:46:7c:a7:3b:54:
         17:42:5f:dd:b2:cf:8e:07:9a:3f:5c:74:7b:c7:24:12:0a:2a:
         27:06:c5:3d:12:2d:ee:47:e5:11:cd:5c:6e:7a:6f:af:3b:62:
         60:33:25:64:d4:f8:f8:45:00:40:15:34:62:7c:81:b1:1a:07:
         09:f7:a1:9b:70:28:07:50:6f:33:5e:74:39:14:85:17:44:19:
         05:d9:d5:5a:72:d6:b4:1a:2d:bf:48:99:24:b6:58:49:20:62:
         bc:e0:92:7a:dc:f4:ec:04:8a:a1:76:e3:6e:db:9e:6c:2c:e6:
         1d:73:58:1b:26:b4:f6:9e:a1:ba:0c:70:04:0a:ba:14:df:02:
         2e:7e:b1:76:1d:93:30:3d:3b:8f:87:a3:63:5c:61:28:cc:86:
         a6:8d:92:e7:f5:af:db:99:a2:25:f9:64:a6:77:8d:92:cc:29:
         9d:de:1a:ef:2b:ed:1b:ae:35:54:36:f7:f4:dc:9d:05:2a:f0:
         9b:16:33:53:36:20:61:24:9f:81:11:55:df:e1:e3:74:9c:cb:
         2d:3e:71:0b:3a:1b:61:f5:48:19:fa:d7:ea:43:86:43:aa:e5:
         52:a7:98:4c:4c:2a:bd:d2:be:de:d9:06:83:eb:bb:85:1b:9a:
         6a:a5:ae:e4:ad:3d:fb:f8:79:97:ec:f1:e8:f7:25:55:ca:01:
         f4:47:92:e8:93:59:ef:d0:01:ec:43:3f:b6:ca:0f:c6:19:90:
         a0:0e:c1:3e:4b:bc:74:34:78:21:38:a4:e6:d0:6a:45:c5:07:
         bd:1d:e5:e9:d2:92:d1:59:d2:a3:51:ea:35:55:29:70:31:64:
         9b:1f:79:38:ea:ec:6b:a7:54:9e:d3:fd:76:45:3b:42:6b:1b:
         46:7f:c1:79:4d:bf:e2:e3:cf:8b:49:d1:c7:cc:b7:53:e1:3a:
         bb:c1:08:c1:32:d3:da:6d:6c:27:d9:2c:03:1a:c0:b9:3b:22:
         8c:39:63:f7:1e:8f:b9:3b:99:01:73:6d:24:d0:00:e9:b3:bb:
         54:ff:3c:5d:80:f5:e7:b1:73:27:45:00:15:b3:f1:f9:6b:da:
         f8:16:c0:51:eb:c8:3c:a1:f1:d6:78:44:53:3f:9e:d2:ee:3f:
         05:b9:ff:41:a1:aa:07:b9:b8:b9:38:9c:2e:09:da:a7:5b:5f:
         cd:c3:83:2e:04:ee:2b:fd:c1:f8:ba:d3:82:5d:bc:42:c0:b1:
         17:97:ca:74:61:2f:24:7d:a3:9a:03:ec:79:b9:ba:7c:b4:31:
         cf:a6:c2:ce:ac:d8:40:a0
-----BEGIN CERTIFICATE-----
MIIFcjCCA1qgAwIBAgIFAIAIJjEwDQYJKoZIhvcNAQELBQAwJjEkMCIGA1UEAxQb
Q0ExX3NoYTI1Nl80MDk2XzY1NTM3X3YzX2NhMCAXDTIzMDMxOTA3MjI0OVoYDzIx
MjIwMjIzMDcyMjQ5WjAnMSUwIwYDVQQDDBxTUkszX3NoYTI1Nl80MDk2XzY1NTM3
X3YzX2NhMIICIjANBgkqhkiG9w0BAQEFAAOCAg8AMIICCgKCAgEA0i62b+DHTdav
NOYF5tgYOoVVlbLo61GBBf4lwsSKbtyw9Um3e57wM4vwlB9Afc7iqexVEUfki9OO
qSxKfnUiLbBJqLRD1/Oa/amaXcalDzInKY0SHc/OorFyus65aVb7BwwZ9WatghSR
ef5juooH/nC2D9S02tUM4pme/dBmzVXtR5nRixdhc+wHepgAUcj2il+0WwGTtxyo
BVv3rct4a1kr+7y4Fo5JF5RoUD+BRGUhb9rSrEF/A2ftbZbBDfdyzkUa91I4hISG
uUR9BJGd6cvAzY8eHl+o2yi5q0zMHE19Zr5+tbvEqMQPH/Igy1YrrMpe+zup4dEU
BbKwlXaqws9d+rQHsa27y1PpIt1qU5q/zh3WWLp+94tXQML5MkNDSLoCVHeUHzO0
JZQyhiRMMiq3UEZk3hbFGNpw8DtOntATcEdI4JZz+b9EBL2R/A6YVNoIVkE+qR/B
WpAjnw6MlrW/ggbFrVzIrvVi8rRV+Pf8jR7sEdSA5AegzegzoFFRCLEaLsBTCfWN
AWFLBpOnyIp9bhlTZNPh259+627fHaSAhpiAEoEh7d6ufwgIPviw8/9NlWtRzHGt
u4O201fxieCIfxiOxq2ZRtWLBt3eXLLe64TchHZmytH4Ndq1kPcpgE/3OFLQlXLy
4mYQ8+7Lc0UyZAc6RAxZqQpn913HVSMCAwEAAaOBozCBoDAdBgNVHQ4EFgQU/RXY
oQmgLVuUKubsKPxWsL+RXyMwYQYDVR0jBFowWIAUP7L9C0T2aoJ8WlgkHqcTGUSv
GXOhKqQoMCYxJDAiBgNVBAMUG0NBMV9zaGEyNTZfNDA5Nl82NTUzN192M19jYYIU
Amg94T68LA+mAKs3bhExwFZzevIwDwYDVR0TAQH/BAUwAwEB/zALBgNVHQ8EBAMC
AgQwDQYJKoZIhvcNAQELBQADggIBAEI7pbskRMpCoq37H2vjhWeeeb/Nz5iVFpfh
ZrmN/mVGfKc7VBdCX92yz44Hmj9cdHvHJBIKKicGxT0SLe5H5RHNXG56b687YmAz
JWTU+PhFAEAVNGJ8gbEaBwn3oZtwKAdQbzNedDkUhRdEGQXZ1Vpy1rQaLb9ImSS2
WEkgYrzgknrc9OwEiqF2427bnmws5h1zWBsmtPaeoboMcAQKuhTfAi5+sXYdkzA9
O4+Ho2NcYSjMhqaNkuf1r9uZoiX5ZKZ3jZLMKZ3eGu8r7RuuNVQ29/TcnQUq8JsW
M1M2IGEkn4ERVd/h43Scyy0+cQs6G2H1SBn61+pDhkOq5VKnmExMKr3Svt7ZBoPr
u4UbmmqlruStPfv4eZfs8ej3JVXKAfRHkuiTWe/QAexDP7bKD8YZkKAOwT5LvHQ0
eCE4pObQakXFB70d5enSktFZ0qNR6jVVKXAxZJsfeTjq7GunVJ7T/XZFO0JrG0Z/
wXlNv+Ljz4tJ0cfMt1PhOrvBCMEy09ptbCfZLAMawLk7Iow5Y/cej7k7mQFzbSTQ
AOmzu1T/PF2A9eexcydFABWz8flr2vgWwFHryDyh8dZ4RFM/ntLuPwW5/0Ghqge5
uLk4nC4J2qdbX83Dgy4E7iv9wfi604JdvELAsReXynRhLyR9o5oD7Hm5uny0Mc+m
ws6s2ECg
-----END CERTIFICATE-----
