Certificate:
    Data:
        Version: 3 (0x2)
        Serial Number: 2148017714 (0x80082632)
        Signature Algorithm: sha256WithRSAEncryption
        Issuer: CN=SRK3_sha256_4096_65537_v3_ca
        Validity
            Not Before: Mar 19 07:22:49 2023 GMT
            Not After : Feb 23 07:22:49 2122 GMT
        Subject: CN=CSF3_1_sha256_4096_65537_v3_usr
        Subject Public Key Info:
            Public Key Algorithm: rsaEncryption
                RSA Public-Key: (4096 bit)
                Modulus:
                    00:b3:7e:ff:6b:53:fe:22:a3:ba:3f:26:b1:fc:23:
                    00:3e:8e:d4:b4:ba:0e:5e:e5:43:5f:3b:f2:1f:5c:
                    cc:da:c4:da:c5:6f:5b:a2:67:23:81:c9:a4:19:f3:
                    7c:31:42:da:25:a0:2e:e5:1c:49:14:fa:49:64:71:
                    f0:cf:c4:9b:0e:c7:83:1a:cc:01:06:b2:f6:d7:be:
                    b4:fd:b4:30:2f:a4:2f:6b:eb:41:6b:37:3a:04:f1:
                    a9:b9:b6:5c:9a:7b:61:aa:aa:8c:62:f1:a2:68:bd:
                    ab:f1:ed:48:c6:e0:bb:5a:d1:85:3a:74:f4:ed:39:
                    b2:e3:c1:1b:8d:cb:0f:6c:91:ce:81:19:48:8f:b9:
                    e8:64:c5:89:8c:6e:bf:53:ac:4c:e8:9f:10:c0:e7:
                    65:b1:60:52:8d:10:4f:60:16:03:96:3f:fd:2d:c2:
                    92:0e:26:1f:bc:9a:c6:b1:ae:14:1b:65:8a:f2:36:
                    71:47:23:52:1d:f4:e2:e3:86:ec:46:a6:d4:99:eb:
                    71:1d:2c:cc:a3:72:46:a5:5f:8a:2a:04:95:c1:3b:
                    96:01:ee:cc:1a:3e:df:1d:83:40:97:15:b1:88:9d:
                    37:b0:61:2d:86:4e:9d:8c:ac:e0:4a:72:a1:97:8b:
                    75:f6:3a:fa:43:1b:f7:5e:61:83:58:04:59:ee:b8:
                    78:9e:4d:e8:fd:f3:0c:cb:5c:94:16:34:90:c5:5e:
                    42:01:e6:76:17:6f:e9:6a:8a:a4:51:39:83:97:a4:
                    0c:74:aa:3d:7b:63:78:b3:45:db:a7:d3:9d:ab:6e:
                    c2:ec:c1:34:32:15:d5:32:c3:b5:b4:a4:e6:7b:a5:
                    ba:43:eb:23:d0:79:e3:fa:ce:f8:01:10:5b:d1:02:
                    30:9d:4f:2a:d8:c2:a3:79:22:67:56:fc:86:55:99:
                    29:45:a0:96:24:30:e6:38:48:d0:5e:81:d4:52:98:
                    15:9a:9d:d7:33:17:25:f8:06:e8:25:92:05:21:aa:
                    a6:40:ae:a6:96:58:a6:d6:75:cb:f3:7b:94:d8:cd:
                    5a:6e:8b:ef:94:64:51:84:94:68:6a:85:18:fd:2d:
                    f4:43:9c:8a:a2:29:86:3e:bb:65:b4:f0:0f:68:33:
                    77:1e:35:ba:2a:f6:c8:b5:be:dc:b0:dd:f5:ab:c1:
                    5e:40:ea:62:3c:41:05:a3:3e:f0:a6:c7:61:79:a9:
                    d7:f5:eb:ac:88:ed:ac:84:5b:9e:79:76:ab:6b:92:
                    16:eb:6e:0d:a6:52:13:2a:35:6d:8a:71:85:e2:8d:
                    58:7b:33:ee:ea:c7:95:d3:3e:6c:54:23:9a:74:be:
                    fe:46:47:89:ca:42:06:69:46:8d:56:61:78:c3:cd:
                    b2:ea:31
                Exponent: 65537 (0x10001)
        X509v3 extensions:
            X509v3 Basic Constraints: 
                CA:FALSE
            Netscape Comment: 
                OpenSSL Generated Certificate
            X509v3 Subject Key Identifier: 
                F8:1E:18:A8:45:29:55:13:0B:82:CB:3E:F6:93:68:3F:27:D6:1E:C1
            X509v3 Authority Key Identifier: 
                keyid:FD:15:D8:A1:09:A0:2D:5B:94:2A:E6:EC:28:FC:56:B0:BF:91:5F:23

    Signature Algorithm: sha256WithRSAEncryption
         78:db:58:6f:8d:ea:5d:51:a3:a4:1a:7f:eb:bd:64:12:40:28:
         3d:97:19:3c:56:5d:ad:91:a1:d9:d7:af:91:dc:43:fd:92:f1:
         a4:ae:25:db:63:da:70:85:9e:f1:08:67:06:ff:92:47:00:29:
         68:6d:04:bb:de:23:4b:fc:07:e9:79:13:9b:08:8d:fb:a5:e8:
         46:d8:39:0d:81:57:7c:a9:b1:15:60:97:dd:07:b5:00:b5:50:
         55:c7:b0:c3:e8:30:21:1f:d7:e9:9f:e0:4b:2d:fd:54:dd:f7:
         12:ad:d2:65:33:c0:16:2a:e7:a6:c7:7d:79:e2:f3:2d:b1:44:
         0b:7a:94:6d:c2:19:3e:43:da:79:f8:df:7b:bf:cc:da:c0:8d:
         e2:5e:d0:95:05:82:20:ba:e1:2a:a8:97:90:41:80:33:ee:26:
         11:7f:09:b7:52:27:54:65:b8:e4:05:8e:65:68:4f:d1:99:71:
         79:ef:df:2f:2c:ec:82:df:71:62:62:b8:91:b7:68:29:c7:71:
         3e:eb:64:be:1f:20:c8:21:d6:93:b4:74:1a:dc:5d:e9:49:5d:
         dd:cb:81:d6:ff:13:3e:1d:9a:18:a3:3e:32:58:90:ac:b7:ac:
         ca:7c:f4:d9:98:fe:eb:9a:c7:c0:16:b4:c7:3c:c1:fe:ac:f1:
         dc:e6:cd:62:98:de:68:61:da:ba:26:0d:24:dc:77:bd:ac:72:
         48:e2:0e:d6:32:65:bc:56:a8:05:c2:03:4a:ac:ab:1a:bb:6b:
         7f:a2:d3:68:ec:8e:3c:3b:8d:5f:27:2a:76:f0:94:1e:a5:2a:
         10:fd:32:20:71:81:4f:45:12:95:78:b1:d3:16:8c:f1:a8:f7:
         f1:06:8a:06:cb:a8:7f:a0:f2:f6:5a:fb:be:17:f6:8a:a0:62:
         d7:68:51:c7:c0:b3:0b:78:b1:d8:7d:bc:d3:3d:23:70:24:26:
         f2:84:61:1b:c7:6a:26:af:d2:71:b1:2e:fc:da:eb:3e:5b:3a:
         04:7c:97:fa:a1:41:01:ad:44:6b:3e:dd:21:69:07:15:1e:8e:
         18:42:20:d2:a6:19:bd:b2:0d:38:88:8b:5a:e9:87:36:0b:57:
         a7:ec:8b:3a:3b:1b:66:46:0d:53:10:57:21:9a:1d:d7:21:35:
         0d:ab:76:7b:5c:29:18:04:5d:f8:ee:45:95:1a:ce:f6:89:30:
         fa:7b:06:6e:7c:5a:15:3c:fe:62:2d:25:13:ae:1b:03:ce:cc:
         aa:56:01:a0:2f:12:22:9a:35:83:ac:9c:e8:9b:1e:5d:6f:e3:
         a8:0b:53:b6:47:05:46:f6:49:c1:3d:d1:a0:c6:11:ec:e0:47:
         7e:59:49:5d:62:eb:d5:50
-----BEGIN CERTIFICATE-----
MIIFTTCCAzWgAwIBAgIFAIAIJjIwDQYJKoZIhvcNAQELBQAwJzElMCMGA1UEAwwc
U1JLM19zaGEyNTZfNDA5Nl82NTUzN192M19jYTAgFw0yMzAzMTkwNzIyNDlaGA8y
MTIyMDIyMzA3MjI0OVowKjEoMCYGA1UEAwwfQ1NGM18xX3NoYTI1Nl80MDk2XzY1
NTM3X3YzX3VzcjCCAiIwDQYJKoZIhvcNAQEBBQADggIPADCCAgoCggIBALN+/2tT
/iKjuj8msfwjAD6O1LS6Dl7lQ1878h9czNrE2sVvW6JnI4HJpBnzfDFC2iWgLuUc
SRT6SWRx8M/Emw7HgxrMAQay9te+tP20MC+kL2vrQWs3OgTxqbm2XJp7YaqqjGLx
omi9q/HtSMbgu1rRhTp09O05suPBG43LD2yRzoEZSI+56GTFiYxuv1OsTOifEMDn
ZbFgUo0QT2AWA5Y//S3Ckg4mH7yaxrGuFBtlivI2cUcjUh304uOG7Eam1JnrcR0s
zKNyRqVfiioElcE7lgHuzBo+3x2DQJcVsYidN7BhLYZOnYys4EpyoZeLdfY6+kMb
915hg1gEWe64eJ5N6P3zDMtclBY0kMVeQgHmdhdv6WqKpFE5g5ekDHSqPXtjeLNF
26fTnatuwuzBNDIV1TLDtbSk5nulukPrI9B54/rO+AEQW9ECMJ1PKtjCo3kiZ1b8
hlWZKUWgliQw5jhI0F6B1FKYFZqd1zMXJfgG6CWSBSGqpkCuppZYptZ1y/N7lNjN
Wm6L75RkUYSUaGqFGP0t9EOciqIphj67ZbTwD2gzdx41uir2yLW+3LDd9avBXkDq
YjxBBaM+8KbHYXmp1/XrrIjtrIRbnnl2q2uSFutuDaZSEyo1bYpxheKNWHsz7urH
ldM+bFQjmnS+/kZHicpCBmlGjVZheMPNsuoxAgMBAAGjezB5MAkGA1UdEwQCMAAw
LAYJYIZIAYb4QgENBB8WHU9wZW5TU0wgR2VuZXJhdGVkIENlcnRpZmljYXRlMB0G
A1UdDgQWBBT4HhioRSlVEwuCyz72k2g/J9YewTAfBgNVHSMEGDAWgBT9FdihCaAt
W5Qq5uwo/Fawv5FfIzANBgkqhkiG9w0BAQsFAAOCAgEAeNtYb43qXVGjpBp/671k
EkAoPZcZPFZdrZGh2devkdxD/ZLxpK4l22PacIWe8QhnBv+SRwApaG0Eu94jS/wH
6XkTmwiN+6XoRtg5DYFXfKmxFWCX3Qe1ALVQVceww+gwIR/X6Z/gSy39VN33Eq3S
ZTPAFirnpsd9eeLzLbFEC3qUbcIZPkPaefjfe7/M2sCN4l7QlQWCILrhKqiXkEGA
M+4mEX8Jt1InVGW45AWOZWhP0Zlxee/fLyzsgt9xYmK4kbdoKcdxPutkvh8gyCHW
k7R0Gtxd6Uld3cuB1v8TPh2aGKM+MliQrLesynz02Zj+65rHwBa0xzzB/qzx3ObN
YpjeaGHauiYNJNx3vaxySOIO1jJlvFaoBcIDSqyrGrtrf6LTaOyOPDuNXycqdvCU
HqUqEP0yIHGBT0USlXix0xaM8aj38QaKBsuof6Dy9lr7vhf2iqBi12hRx8CzC3ix
2H280z0jcCQm8oRhG8dqJq/ScbEu/NrrPls6BHyX+qFBAa1Eaz7dIWkHFR6OGEIg
0qYZvbINOIiLWumHNgtXp+yLOjsbZkYNUxBXIZod1yE1Dat2e1wpGARd+O5FlRrO
9okw+nsGbnxaFTz+Yi0lE64bA87MqlYBoC8SIpo1g6yc6JseXW/jqAtTtkcFRvZJ
wT3RoMYR7OBHfllJXWLr1VA=
-----END CERTIFICATE-----
